
pid1.elf:     file format elf32-avr

Sections:
Idx Name          Size      VMA       LMA       File off  Algn
  0 .text         00001920  00000000  00000000  00000094  2**1
                  CONTENTS, ALLOC, LOAD, READONLY, CODE
  1 .data         00000050  00800060  00001920  000019b4  2**0
                  CONTENTS, ALLOC, LOAD, DATA
  2 .bss          0000004e  008000b0  008000b0  00001a04  2**0
                  ALLOC
  3 .stab         00001ba8  00000000  00000000  00001a04  2**2
                  CONTENTS, READONLY, DEBUGGING
  4 .stabstr      00000559  00000000  00000000  000035ac  2**0
                  CONTENTS, READONLY, DEBUGGING
  5 .comment      0000002f  00000000  00000000  00003b05  2**0
                  CONTENTS, READONLY
  6 .debug_aranges 00000350  00000000  00000000  00003b34  2**0
                  CONTENTS, READONLY, DEBUGGING
  7 .debug_info   00002e2a  00000000  00000000  00003e84  2**0
                  CONTENTS, READONLY, DEBUGGING
  8 .debug_abbrev 00001045  00000000  00000000  00006cae  2**0
                  CONTENTS, READONLY, DEBUGGING
  9 .debug_line   00001474  00000000  00000000  00007cf3  2**0
                  CONTENTS, READONLY, DEBUGGING
 10 .debug_frame  000006f0  00000000  00000000  00009168  2**2
                  CONTENTS, READONLY, DEBUGGING
 11 .debug_str    00000beb  00000000  00000000  00009858  2**0
                  CONTENTS, READONLY, DEBUGGING
 12 .debug_loc    00001818  00000000  00000000  0000a443  2**0
                  CONTENTS, READONLY, DEBUGGING
 13 .debug_ranges 000002f8  00000000  00000000  0000bc5b  2**0
                  CONTENTS, READONLY, DEBUGGING

Disassembly of section .text:

00000000 <__vectors>:
       0:	19 c1       	rjmp	.+562    	; 0x234 <__ctors_end>
       2:	33 c1       	rjmp	.+614    	; 0x26a <__bad_interrupt>
       4:	32 c1       	rjmp	.+612    	; 0x26a <__bad_interrupt>
       6:	70 ca       	rjmp	.-2848   	; 0xfffff4e8 <__eeprom_end+0xff7ef4e8>
       8:	30 c1       	rjmp	.+608    	; 0x26a <__bad_interrupt>
       a:	2f c1       	rjmp	.+606    	; 0x26a <__bad_interrupt>
       c:	2e c1       	rjmp	.+604    	; 0x26a <__bad_interrupt>
       e:	2d c1       	rjmp	.+602    	; 0x26a <__bad_interrupt>
      10:	2c c1       	rjmp	.+600    	; 0x26a <__bad_interrupt>
      12:	41 c9       	rjmp	.-3454   	; 0xfffff296 <__eeprom_end+0xff7ef296>
      14:	2a c1       	rjmp	.+596    	; 0x26a <__bad_interrupt>
      16:	29 c1       	rjmp	.+594    	; 0x26a <__bad_interrupt>
      18:	28 c1       	rjmp	.+592    	; 0x26a <__bad_interrupt>
      1a:	27 c1       	rjmp	.+590    	; 0x26a <__bad_interrupt>
      1c:	53 c1       	rjmp	.+678    	; 0x2c4 <__vector_14>
      1e:	25 c1       	rjmp	.+586    	; 0x26a <__bad_interrupt>
      20:	1c c9       	rjmp	.-3528   	; 0xfffff25a <__eeprom_end+0xff7ef25a>
      22:	23 c1       	rjmp	.+582    	; 0x26a <__bad_interrupt>
      24:	22 c1       	rjmp	.+580    	; 0x26a <__bad_interrupt>
      26:	ab c2       	rjmp	.+1366   	; 0x57e <decode_led_char+0x48>
      28:	bb c2       	rjmp	.+1398   	; 0x5a0 <decode_led_char+0x6a>
      2a:	ba c2       	rjmp	.+1396   	; 0x5a0 <decode_led_char+0x6a>
      2c:	b9 c2       	rjmp	.+1394   	; 0x5a0 <decode_led_char+0x6a>
      2e:	b8 c2       	rjmp	.+1392   	; 0x5a0 <decode_led_char+0x6a>
      30:	b7 c2       	rjmp	.+1390   	; 0x5a0 <decode_led_char+0x6a>
      32:	b6 c2       	rjmp	.+1388   	; 0x5a0 <decode_led_char+0x6a>
      34:	b5 c2       	rjmp	.+1386   	; 0x5a0 <decode_led_char+0x6a>
      36:	b4 c2       	rjmp	.+1384   	; 0x5a0 <decode_led_char+0x6a>
      38:	b3 c2       	rjmp	.+1382   	; 0x5a0 <decode_led_char+0x6a>
      3a:	b2 c2       	rjmp	.+1380   	; 0x5a0 <decode_led_char+0x6a>
      3c:	b1 c2       	rjmp	.+1378   	; 0x5a0 <decode_led_char+0x6a>
      3e:	99 c2       	rjmp	.+1330   	; 0x572 <decode_led_char+0x3c>
      40:	9a c2       	rjmp	.+1332   	; 0x576 <decode_led_char+0x40>
      42:	95 c2       	rjmp	.+1322   	; 0x56e <decode_led_char+0x38>
      44:	ad c2       	rjmp	.+1370   	; 0x5a0 <decode_led_char+0x6a>
      46:	81 c2       	rjmp	.+1282   	; 0x54a <decode_led_char+0x14>
      48:	aa c2       	rjmp	.+1364   	; 0x59e <decode_led_char+0x68>
      4a:	81 c2       	rjmp	.+1282   	; 0x54e <decode_led_char+0x18>
      4c:	82 c2       	rjmp	.+1284   	; 0x552 <decode_led_char+0x1c>
      4e:	83 c2       	rjmp	.+1286   	; 0x556 <decode_led_char+0x20>
      50:	84 c2       	rjmp	.+1288   	; 0x55a <decode_led_char+0x24>
      52:	85 c2       	rjmp	.+1290   	; 0x55e <decode_led_char+0x28>
      54:	86 c2       	rjmp	.+1292   	; 0x562 <decode_led_char+0x2c>
      56:	87 c2       	rjmp	.+1294   	; 0x566 <decode_led_char+0x30>
      58:	88 c2       	rjmp	.+1296   	; 0x56a <decode_led_char+0x34>
      5a:	a2 c2       	rjmp	.+1348   	; 0x5a0 <decode_led_char+0x6a>
      5c:	a1 c2       	rjmp	.+1346   	; 0x5a0 <decode_led_char+0x6a>
      5e:	a0 c2       	rjmp	.+1344   	; 0x5a0 <decode_led_char+0x6a>
      60:	9f c2       	rjmp	.+1342   	; 0x5a0 <decode_led_char+0x6a>
      62:	9e c2       	rjmp	.+1340   	; 0x5a0 <decode_led_char+0x6a>
      64:	9d c2       	rjmp	.+1338   	; 0x5a0 <decode_led_char+0x6a>
      66:	9c c2       	rjmp	.+1336   	; 0x5a0 <decode_led_char+0x6a>
      68:	9b c2       	rjmp	.+1334   	; 0x5a0 <decode_led_char+0x6a>
      6a:	9a c2       	rjmp	.+1332   	; 0x5a0 <decode_led_char+0x6a>
      6c:	8c c2       	rjmp	.+1304   	; 0x586 <decode_led_char+0x50>
      6e:	91 c2       	rjmp	.+1314   	; 0x592 <decode_led_char+0x5c>
      70:	94 c2       	rjmp	.+1320   	; 0x59a <decode_led_char+0x64>
      72:	8b c2       	rjmp	.+1302   	; 0x58a <decode_led_char+0x54>
      74:	95 c2       	rjmp	.+1322   	; 0x5a0 <decode_led_char+0x6a>
      76:	94 c2       	rjmp	.+1320   	; 0x5a0 <decode_led_char+0x6a>
      78:	93 c2       	rjmp	.+1318   	; 0x5a0 <decode_led_char+0x6a>
      7a:	92 c2       	rjmp	.+1316   	; 0x5a0 <decode_led_char+0x6a>
      7c:	91 c2       	rjmp	.+1314   	; 0x5a0 <decode_led_char+0x6a>
      7e:	90 c2       	rjmp	.+1312   	; 0x5a0 <decode_led_char+0x6a>
      80:	8f c2       	rjmp	.+1310   	; 0x5a0 <decode_led_char+0x6a>
      82:	85 c2       	rjmp	.+1290   	; 0x58e <decode_led_char+0x58>
      84:	62 c2       	rjmp	.+1220   	; 0x54a <decode_led_char+0x14>
      86:	87 c2       	rjmp	.+1294   	; 0x596 <decode_led_char+0x60>
      88:	8b c2       	rjmp	.+1302   	; 0x5a0 <decode_led_char+0x6a>
      8a:	8a c2       	rjmp	.+1300   	; 0x5a0 <decode_led_char+0x6a>
      8c:	66 c2       	rjmp	.+1228   	; 0x55a <decode_led_char+0x24>
      8e:	88 c2       	rjmp	.+1296   	; 0x5a0 <decode_led_char+0x6a>
      90:	87 c2       	rjmp	.+1294   	; 0x5a0 <decode_led_char+0x6a>
      92:	86 c2       	rjmp	.+1292   	; 0x5a0 <decode_led_char+0x6a>
      94:	85 c2       	rjmp	.+1290   	; 0x5a0 <decode_led_char+0x6a>
      96:	84 c2       	rjmp	.+1288   	; 0x5a0 <decode_led_char+0x6a>
      98:	83 c2       	rjmp	.+1286   	; 0x5a0 <decode_led_char+0x6a>
      9a:	82 c2       	rjmp	.+1284   	; 0x5a0 <decode_led_char+0x6a>
      9c:	81 c2       	rjmp	.+1282   	; 0x5a0 <decode_led_char+0x6a>
      9e:	80 c2       	rjmp	.+1280   	; 0x5a0 <decode_led_char+0x6a>
      a0:	7f c2       	rjmp	.+1278   	; 0x5a0 <decode_led_char+0x6a>
      a2:	7e c2       	rjmp	.+1276   	; 0x5a0 <decode_led_char+0x6a>
      a4:	6a c2       	rjmp	.+1236   	; 0x57a <decode_led_char+0x44>
      a6:	7c c2       	rjmp	.+1272   	; 0x5a0 <decode_led_char+0x6a>
      a8:	7b c2       	rjmp	.+1270   	; 0x5a0 <decode_led_char+0x6a>
      aa:	7a c2       	rjmp	.+1268   	; 0x5a0 <decode_led_char+0x6a>
      ac:	79 c2       	rjmp	.+1266   	; 0x5a0 <decode_led_char+0x6a>
      ae:	78 c2       	rjmp	.+1264   	; 0x5a0 <decode_led_char+0x6a>
      b0:	77 c2       	rjmp	.+1262   	; 0x5a0 <decode_led_char+0x6a>
      b2:	76 c2       	rjmp	.+1260   	; 0x5a0 <decode_led_char+0x6a>
      b4:	75 c2       	rjmp	.+1258   	; 0x5a0 <decode_led_char+0x6a>
      b6:	74 c2       	rjmp	.+1256   	; 0x5a0 <decode_led_char+0x6a>
      b8:	73 c2       	rjmp	.+1254   	; 0x5a0 <decode_led_char+0x6a>
      ba:	72 c2       	rjmp	.+1252   	; 0x5a0 <decode_led_char+0x6a>
      bc:	71 c2       	rjmp	.+1250   	; 0x5a0 <decode_led_char+0x6a>
      be:	70 c2       	rjmp	.+1248   	; 0x5a0 <decode_led_char+0x6a>
      c0:	6f c2       	rjmp	.+1246   	; 0x5a0 <decode_led_char+0x6a>
      c2:	6e c2       	rjmp	.+1244   	; 0x5a0 <decode_led_char+0x6a>
      c4:	6d c2       	rjmp	.+1242   	; 0x5a0 <decode_led_char+0x6a>
      c6:	6c c2       	rjmp	.+1240   	; 0x5a0 <decode_led_char+0x6a>
      c8:	6b c2       	rjmp	.+1238   	; 0x5a0 <decode_led_char+0x6a>
      ca:	6a c2       	rjmp	.+1236   	; 0x5a0 <decode_led_char+0x6a>
      cc:	69 c2       	rjmp	.+1234   	; 0x5a0 <decode_led_char+0x6a>
      ce:	68 c2       	rjmp	.+1232   	; 0x5a0 <decode_led_char+0x6a>
      d0:	67 c2       	rjmp	.+1230   	; 0x5a0 <decode_led_char+0x6a>
      d2:	66 c2       	rjmp	.+1228   	; 0x5a0 <decode_led_char+0x6a>
      d4:	65 c2       	rjmp	.+1226   	; 0x5a0 <decode_led_char+0x6a>
      d6:	64 c2       	rjmp	.+1224   	; 0x5a0 <decode_led_char+0x6a>
      d8:	63 c2       	rjmp	.+1222   	; 0x5a0 <decode_led_char+0x6a>
      da:	62 c2       	rjmp	.+1220   	; 0x5a0 <decode_led_char+0x6a>
      dc:	61 c2       	rjmp	.+1218   	; 0x5a0 <decode_led_char+0x6a>
      de:	60 c2       	rjmp	.+1216   	; 0x5a0 <decode_led_char+0x6a>
      e0:	5f c2       	rjmp	.+1214   	; 0x5a0 <decode_led_char+0x6a>
      e2:	5e c2       	rjmp	.+1212   	; 0x5a0 <decode_led_char+0x6a>
      e4:	5d c2       	rjmp	.+1210   	; 0x5a0 <decode_led_char+0x6a>
      e6:	5c c2       	rjmp	.+1208   	; 0x5a0 <decode_led_char+0x6a>
      e8:	5b c2       	rjmp	.+1206   	; 0x5a0 <decode_led_char+0x6a>
      ea:	5a c2       	rjmp	.+1204   	; 0x5a0 <decode_led_char+0x6a>
      ec:	59 c2       	rjmp	.+1202   	; 0x5a0 <decode_led_char+0x6a>
      ee:	58 c2       	rjmp	.+1200   	; 0x5a0 <decode_led_char+0x6a>
      f0:	57 c2       	rjmp	.+1198   	; 0x5a0 <decode_led_char+0x6a>
      f2:	56 c2       	rjmp	.+1196   	; 0x5a0 <decode_led_char+0x6a>
      f4:	55 c2       	rjmp	.+1194   	; 0x5a0 <decode_led_char+0x6a>
      f6:	54 c2       	rjmp	.+1192   	; 0x5a0 <decode_led_char+0x6a>
      f8:	53 c2       	rjmp	.+1190   	; 0x5a0 <decode_led_char+0x6a>
      fa:	52 c2       	rjmp	.+1188   	; 0x5a0 <decode_led_char+0x6a>
      fc:	51 c2       	rjmp	.+1186   	; 0x5a0 <decode_led_char+0x6a>
      fe:	50 c2       	rjmp	.+1184   	; 0x5a0 <decode_led_char+0x6a>
     100:	4f c2       	rjmp	.+1182   	; 0x5a0 <decode_led_char+0x6a>
     102:	4e c2       	rjmp	.+1180   	; 0x5a0 <decode_led_char+0x6a>
     104:	4d c2       	rjmp	.+1178   	; 0x5a0 <decode_led_char+0x6a>
     106:	4c c2       	rjmp	.+1176   	; 0x5a0 <decode_led_char+0x6a>
     108:	4b c2       	rjmp	.+1174   	; 0x5a0 <decode_led_char+0x6a>
     10a:	4a c2       	rjmp	.+1172   	; 0x5a0 <decode_led_char+0x6a>
     10c:	49 c2       	rjmp	.+1170   	; 0x5a0 <decode_led_char+0x6a>
     10e:	48 c2       	rjmp	.+1168   	; 0x5a0 <decode_led_char+0x6a>
     110:	47 c2       	rjmp	.+1166   	; 0x5a0 <decode_led_char+0x6a>
     112:	46 c2       	rjmp	.+1164   	; 0x5a0 <decode_led_char+0x6a>
     114:	45 c2       	rjmp	.+1162   	; 0x5a0 <decode_led_char+0x6a>
     116:	44 c2       	rjmp	.+1160   	; 0x5a0 <decode_led_char+0x6a>
     118:	43 c2       	rjmp	.+1158   	; 0x5a0 <decode_led_char+0x6a>
     11a:	42 c2       	rjmp	.+1156   	; 0x5a0 <decode_led_char+0x6a>
     11c:	41 c2       	rjmp	.+1154   	; 0x5a0 <decode_led_char+0x6a>
     11e:	40 c2       	rjmp	.+1152   	; 0x5a0 <decode_led_char+0x6a>
     120:	3f c2       	rjmp	.+1150   	; 0x5a0 <decode_led_char+0x6a>
     122:	3e c2       	rjmp	.+1148   	; 0x5a0 <decode_led_char+0x6a>
     124:	3d c2       	rjmp	.+1146   	; 0x5a0 <decode_led_char+0x6a>
     126:	3c c2       	rjmp	.+1144   	; 0x5a0 <decode_led_char+0x6a>
     128:	3b c2       	rjmp	.+1142   	; 0x5a0 <decode_led_char+0x6a>
     12a:	3a c2       	rjmp	.+1140   	; 0x5a0 <decode_led_char+0x6a>
     12c:	39 c2       	rjmp	.+1138   	; 0x5a0 <decode_led_char+0x6a>
     12e:	38 c2       	rjmp	.+1136   	; 0x5a0 <decode_led_char+0x6a>
     130:	37 c2       	rjmp	.+1134   	; 0x5a0 <decode_led_char+0x6a>
     132:	36 c2       	rjmp	.+1132   	; 0x5a0 <decode_led_char+0x6a>
     134:	35 c2       	rjmp	.+1130   	; 0x5a0 <decode_led_char+0x6a>
     136:	34 c2       	rjmp	.+1128   	; 0x5a0 <decode_led_char+0x6a>
     138:	33 c2       	rjmp	.+1126   	; 0x5a0 <decode_led_char+0x6a>
     13a:	32 c2       	rjmp	.+1124   	; 0x5a0 <decode_led_char+0x6a>
     13c:	31 c2       	rjmp	.+1122   	; 0x5a0 <decode_led_char+0x6a>
     13e:	30 c2       	rjmp	.+1120   	; 0x5a0 <decode_led_char+0x6a>
     140:	2f c2       	rjmp	.+1118   	; 0x5a0 <decode_led_char+0x6a>
     142:	2e c2       	rjmp	.+1116   	; 0x5a0 <decode_led_char+0x6a>
     144:	2d c2       	rjmp	.+1114   	; 0x5a0 <decode_led_char+0x6a>
     146:	1d c2       	rjmp	.+1082   	; 0x582 <decode_led_char+0x4c>

00000148 <menuFunctionSet>:
     148:	01 82 06 85 06 b6 05 03 b2 05 26 06 53 04 02 22     ..........&.S.."
     158:	06 b9 05 aa 05 05 a0 05 5b 05 00 00 0b 59 04 5b     ........[....Y.[
     168:	05 67 04 04 a0 05 08 05 00 00 0c 59 04 08 05 67     .g.........Y...g
     178:	04 06 a8 05 be 04 00 00 09 59 04 be 04 67 04 07     .........Y...g..
     188:	a8 05 74 04 00 00 0a 59 04 74 04 67 04 08 6d 04     ..t....Y.t.g..m.
     198:	6f 04 00 00 0d 6e 04 6f 04 00 00                    o....n.o...

000001a3 <menuJumpSet>:
     1a3:	01 06 00 03 a8 01 00 01 02 40 01 00 02 05 28 02     .........@....(.
     1b3:	00 01 01 80 03 00 83 01 40 05 00 82 01 00 05 04     ........@.......
     1c3:	00 04 68 05 02 00 07 a8 05 00 01 0b 28 0b 00 83     ..h.........(...
     1d3:	05 28 04 00 82 01 00 04 04 00 06 68 04 02 00 05     .(.........h....
     1e3:	a8 04 00 01 0c 28 0c 00 83 04 28 06 00 82 01 00     .....(....(.....
     1f3:	06 04 00 07 68 06 02 00 04 a8 06 00 01 09 00 07     ....h...........
     203:	00 82 01 00 07 04 00 05 68 07 02 00 06 a8 07 00     ........h.......
     213:	01 0a 00 09 00 02 06 00 09 00 01 08 14 08 00 83     ................
     223:	01 00 0a 00 02 07 00 0a 00 01 0d 14 0d 00 83 01     ................
	...

00000234 <__ctors_end>:
     234:	11 24       	eor	r1, r1
     236:	1f be       	out	0x3f, r1	; 63
     238:	cf e5       	ldi	r28, 0x5F	; 95
     23a:	d4 e0       	ldi	r29, 0x04	; 4
     23c:	de bf       	out	0x3e, r29	; 62
     23e:	cd bf       	out	0x3d, r28	; 61

00000240 <__do_copy_data>:
     240:	10 e0       	ldi	r17, 0x00	; 0
     242:	a0 e6       	ldi	r26, 0x60	; 96
     244:	b0 e0       	ldi	r27, 0x00	; 0
     246:	e0 e2       	ldi	r30, 0x20	; 32
     248:	f9 e1       	ldi	r31, 0x19	; 25
     24a:	02 c0       	rjmp	.+4      	; 0x250 <__do_copy_data+0x10>
     24c:	05 90       	lpm	r0, Z+
     24e:	0d 92       	st	X+, r0
     250:	a0 3b       	cpi	r26, 0xB0	; 176
     252:	b1 07       	cpc	r27, r17
     254:	d9 f7       	brne	.-10     	; 0x24c <__do_copy_data+0xc>

00000256 <__do_clear_bss>:
     256:	20 e0       	ldi	r18, 0x00	; 0
     258:	a0 eb       	ldi	r26, 0xB0	; 176
     25a:	b0 e0       	ldi	r27, 0x00	; 0
     25c:	01 c0       	rjmp	.+2      	; 0x260 <.do_clear_bss_start>

0000025e <.do_clear_bss_loop>:
     25e:	1d 92       	st	X+, r1

00000260 <.do_clear_bss_start>:
     260:	ae 3f       	cpi	r26, 0xFE	; 254
     262:	b2 07       	cpc	r27, r18
     264:	e1 f7       	brne	.-8      	; 0x25e <.do_clear_bss_loop>
     266:	06 d7       	rcall	.+3596   	; 0x1074 <main>
     268:	59 cb       	rjmp	.-2382   	; 0xfffff91c <__eeprom_end+0xff7ef91c>

0000026a <__bad_interrupt>:
     26a:	ca ce       	rjmp	.-620    	; 0x0 <__vectors>

0000026c <conv_ADC_to_Celsius>:
{
	float k_norm = -0.4454;
	float offset_norm = 408.2037;
	
	
	return (uint16_t)((float)adc_value * k_norm + offset_norm);
     26c:	bc 01       	movw	r22, r24
     26e:	80 e0       	ldi	r24, 0x00	; 0
     270:	90 e0       	ldi	r25, 0x00	; 0
     272:	1a da       	rcall	.-3020   	; 0xfffff6a8 <__eeprom_end+0xff7ef6a8>
     274:	28 e7       	ldi	r18, 0x78	; 120
     276:	3b e0       	ldi	r19, 0x0B	; 11
     278:	44 ee       	ldi	r20, 0xE4	; 228
     27a:	5e eb       	ldi	r21, 0xBE	; 190
     27c:	a3 da       	rcall	.-2746   	; 0xfffff7c4 <__eeprom_end+0xff7ef7c4>
     27e:	23 e1       	ldi	r18, 0x13	; 19
     280:	3a e1       	ldi	r19, 0x1A	; 26
     282:	4c ec       	ldi	r20, 0xCC	; 204
     284:	53 e4       	ldi	r21, 0x43	; 67
     286:	80 d9       	rcall	.-3328   	; 0xfffff588 <__eeprom_end+0xff7ef588>
     288:	e3 d9       	rcall	.-3130   	; 0xfffff650 <__eeprom_end+0xff7ef650>
}
     28a:	86 2f       	mov	r24, r22
     28c:	97 2f       	mov	r25, r23
     28e:	08 95       	ret

00000290 <update_filtered_adc>:
void update_filtered_adc()
{
	uint8_t i;
	uint16_t filtered_value = 0;
	// Disable interrupts from ADC - to save data integrity
	ACSR &= ~(1<<ACIE);	
     290:	43 98       	cbi	0x08, 3	; 8
     292:	e0 eb       	ldi	r30, 0xB0	; 176
     294:	f0 e0       	ldi	r31, 0x00	; 0
	
	return (uint16_t)((float)adc_value * k_norm + offset_norm);
}


void update_filtered_adc()
     296:	40 ec       	ldi	r20, 0xC0	; 192
     298:	50 e0       	ldi	r21, 0x00	; 0
{
	uint8_t i;
	uint16_t filtered_value = 0;
     29a:	80 e0       	ldi	r24, 0x00	; 0
     29c:	90 e0       	ldi	r25, 0x00	; 0
	// Disable interrupts from ADC - to save data integrity
	ACSR &= ~(1<<ACIE);	
	// Count up
	for(i=0;i<ADC_BUFFER_LENGTH;i++)
	{
		filtered_value += adc_sample_buffer[i];
     29e:	21 91       	ld	r18, Z+
     2a0:	31 91       	ld	r19, Z+
     2a2:	82 0f       	add	r24, r18
     2a4:	93 1f       	adc	r25, r19
	uint8_t i;
	uint16_t filtered_value = 0;
	// Disable interrupts from ADC - to save data integrity
	ACSR &= ~(1<<ACIE);	
	// Count up
	for(i=0;i<ADC_BUFFER_LENGTH;i++)
     2a6:	e4 17       	cp	r30, r20
     2a8:	f5 07       	cpc	r31, r21
     2aa:	c9 f7       	brne	.-14     	; 0x29e <update_filtered_adc+0xe>
	{
		filtered_value += adc_sample_buffer[i];
	}	
	// Enable interrupts from ADC
	ACSR |= (1<<ACIE);
     2ac:	43 9a       	sbi	0x08, 3	; 8
	filtered_value /= ADC_BUFFER_LENGTH;
     2ae:	96 95       	lsr	r25
     2b0:	87 95       	ror	r24
     2b2:	96 95       	lsr	r25
     2b4:	87 95       	ror	r24
     2b6:	96 95       	lsr	r25
     2b8:	87 95       	ror	r24
	adc_filtered_value = filtered_value;
     2ba:	90 93 d9 00 	sts	0x00D9, r25
     2be:	80 93 d8 00 	sts	0x00D8, r24
     2c2:	08 95       	ret

000002c4 <__vector_14>:




ISR(ADC_vect)
{
     2c4:	1f 92       	push	r1
     2c6:	0f 92       	push	r0
     2c8:	0f b6       	in	r0, 0x3f	; 63
     2ca:	0f 92       	push	r0
     2cc:	11 24       	eor	r1, r1
     2ce:	2f 93       	push	r18
     2d0:	8f 93       	push	r24
     2d2:	9f 93       	push	r25
     2d4:	ef 93       	push	r30
     2d6:	ff 93       	push	r31
	uint16_t new_sample = ADC;
     2d8:	84 b1       	in	r24, 0x04	; 4
     2da:	95 b1       	in	r25, 0x05	; 5
	
	if (adc_buffer_pos < 0)
     2dc:	20 91 60 00 	lds	r18, 0x0060
     2e0:	22 23       	and	r18, r18
     2e2:	fc f4       	brge	.+62     	; 0x322 <__vector_14+0x5e>
	{
		// First call to the function, fill whole buffer with current sample
		for (adc_buffer_pos = ADC_BUFFER_LENGTH-1; adc_buffer_pos > 0; adc_buffer_pos--)
		adc_sample_buffer[adc_buffer_pos] = new_sample;
     2e4:	90 93 bf 00 	sts	0x00BF, r25
     2e8:	80 93 be 00 	sts	0x00BE, r24
     2ec:	90 93 bd 00 	sts	0x00BD, r25
     2f0:	80 93 bc 00 	sts	0x00BC, r24
     2f4:	90 93 bb 00 	sts	0x00BB, r25
     2f8:	80 93 ba 00 	sts	0x00BA, r24
     2fc:	90 93 b9 00 	sts	0x00B9, r25
     300:	80 93 b8 00 	sts	0x00B8, r24
     304:	90 93 b7 00 	sts	0x00B7, r25
     308:	80 93 b6 00 	sts	0x00B6, r24
     30c:	90 93 b5 00 	sts	0x00B5, r25
     310:	80 93 b4 00 	sts	0x00B4, r24
     314:	90 93 b3 00 	sts	0x00B3, r25
     318:	80 93 b2 00 	sts	0x00B2, r24
     31c:	10 92 60 00 	sts	0x0060, r1
     320:	0e c0       	rjmp	.+28     	; 0x33e <__vector_14+0x7a>
	}
	else
	{
		// Normal call
		adc_sample_buffer[adc_buffer_pos] = new_sample;
     322:	e2 2f       	mov	r30, r18
     324:	ee 0f       	add	r30, r30
     326:	ff 0b       	sbc	r31, r31
     328:	e0 55       	subi	r30, 0x50	; 80
     32a:	ff 4f       	sbci	r31, 0xFF	; 255
     32c:	91 83       	std	Z+1, r25	; 0x01
     32e:	80 83       	st	Z, r24
		adc_buffer_pos = (adc_buffer_pos == ADC_BUFFER_LENGTH - 1) ? 0 : adc_buffer_pos + 1;
     330:	27 30       	cpi	r18, 0x07	; 7
     332:	11 f0       	breq	.+4      	; 0x338 <__vector_14+0x74>
     334:	2f 5f       	subi	r18, 0xFF	; 255
     336:	01 c0       	rjmp	.+2      	; 0x33a <__vector_14+0x76>
     338:	20 e0       	ldi	r18, 0x00	; 0
     33a:	20 93 60 00 	sts	0x0060, r18
	}		
}	
     33e:	ff 91       	pop	r31
     340:	ef 91       	pop	r30
     342:	9f 91       	pop	r25
     344:	8f 91       	pop	r24
     346:	2f 91       	pop	r18
     348:	0f 90       	pop	r0
     34a:	0f be       	out	0x3f, r0	; 63
     34c:	0f 90       	pop	r0
     34e:	1f 90       	pop	r1
     350:	18 95       	reti

00000352 <process_buttons>:
	uint8_t raw_delayed_inv;
	static uint8_t press_timer = 0;
	uint8_t long_press_mask;
	uint8_t long_press_event_mask;
	
	raw_delayed = raw_current;
     352:	30 91 c6 00 	lds	r19, 0x00C6
	raw_delayed_inv = raw_current_inv;
     356:	20 91 61 00 	lds	r18, 0x0061
	raw_current = raw_button_state;
     35a:	90 91 ec 00 	lds	r25, 0x00EC
     35e:	90 93 c6 00 	sts	0x00C6, r25
	raw_current_inv = ~raw_current;
     362:	49 2f       	mov	r20, r25
     364:	40 95       	com	r20
     366:	40 93 61 00 	sts	0x0061, r20
	
	// Must be before press_timer update
	long_press_mask = (press_timer >= LONG_PRESS_DELAY) ? 0xFF : 0x00;
     36a:	80 91 c7 00 	lds	r24, 0x00C7
     36e:	8c 30       	cpi	r24, 0x0C	; 12
     370:	10 f0       	brcs	.+4      	; 0x376 <process_buttons+0x24>
     372:	6f ef       	ldi	r22, 0xFF	; 255
     374:	01 c0       	rjmp	.+2      	; 0x378 <process_buttons+0x26>
     376:	60 e0       	ldi	r22, 0x00	; 0
	
	if (raw_delayed != raw_current)
     378:	39 17       	cp	r19, r25
     37a:	41 f0       	breq	.+16     	; 0x38c <process_buttons+0x3a>
	{
		press_timer = 0;
     37c:	10 92 c7 00 	sts	0x00C7, r1
	}
	
	// Must after press_timer update
	long_press_event_mask = (press_timer == LONG_PRESS_DELAY) ? 0xFF : 0x00;
			
	button_action_down = raw_current & raw_delayed_inv;
     380:	89 2f       	mov	r24, r25
     382:	82 23       	and	r24, r18
     384:	80 93 c3 00 	sts	0x00C3, r24
     388:	50 e0       	ldi	r21, 0x00	; 0
     38a:	14 c0       	rjmp	.+40     	; 0x3b4 <process_buttons+0x62>
	
	if (raw_delayed != raw_current)
	{
		press_timer = 0;
	}
	else if (press_timer <= LONG_PRESS_DELAY)
     38c:	8d 30       	cpi	r24, 0x0D	; 13
     38e:	18 f4       	brcc	.+6      	; 0x396 <process_buttons+0x44>
	{
		press_timer++;
     390:	8f 5f       	subi	r24, 0xFF	; 255
     392:	80 93 c7 00 	sts	0x00C7, r24
	}
	
	// Must after press_timer update
	long_press_event_mask = (press_timer == LONG_PRESS_DELAY) ? 0xFF : 0x00;
     396:	50 91 c7 00 	lds	r21, 0x00C7
     39a:	5c 30       	cpi	r21, 0x0C	; 12
     39c:	09 f4       	brne	.+2      	; 0x3a0 <process_buttons+0x4e>
     39e:	45 c0       	rjmp	.+138    	; 0x42a <process_buttons+0xd8>
			
	button_action_down = raw_current & raw_delayed_inv;
     3a0:	89 2f       	mov	r24, r25
     3a2:	82 23       	and	r24, r18
     3a4:	80 93 c3 00 	sts	0x00C3, r24
			
	if (press_timer > REPEAT_DELAY)
     3a8:	57 30       	cpi	r21, 0x07	; 7
     3aa:	18 f0       	brcs	.+6      	; 0x3b2 <process_buttons+0x60>
     3ac:	50 e0       	ldi	r21, 0x00	; 0
		raw_delayed_inv |= 0xFF;
     3ae:	2f ef       	ldi	r18, 0xFF	; 255
     3b0:	01 c0       	rjmp	.+2      	; 0x3b4 <process_buttons+0x62>
	// Must after press_timer update
	long_press_event_mask = (press_timer == LONG_PRESS_DELAY) ? 0xFF : 0x00;
			
	button_action_down = raw_current & raw_delayed_inv;
			
	if (press_timer > REPEAT_DELAY)
     3b2:	50 e0       	ldi	r21, 0x00	; 0
		raw_delayed_inv |= 0xFF;
	
	button_action_rep = raw_current & raw_delayed_inv;
     3b4:	29 23       	and	r18, r25
     3b6:	20 93 c2 00 	sts	0x00C2, r18
	
	button_action_up_short = raw_current_inv & raw_delayed & ~long_press_mask;
     3ba:	60 95       	com	r22
     3bc:	34 23       	and	r19, r20
     3be:	36 23       	and	r19, r22
     3c0:	30 93 c1 00 	sts	0x00C1, r19
	//button_action_up_long  = raw_current_inv & raw_delayed & long_press_mask;
	button_action_long  = raw_current & long_press_event_mask;
     3c4:	59 23       	and	r21, r25
     3c6:	50 93 c0 00 	sts	0x00C0, r21
	
	// Compose button state
	button_state = (button_action_down & (BD_MENU | BD_UP | BD_DOWN | BD_ROTFWD | BD_ROTREV | BD_HEATCTRL));
     3ca:	87 77       	andi	r24, 0x77	; 119
     3cc:	90 e0       	ldi	r25, 0x00	; 0
	if (button_action_up_short & BD_MENU)
     3ce:	30 fd       	sbrc	r19, 0
     3d0:	05 c0       	rjmp	.+10     	; 0x3dc <process_buttons+0x8a>
	button_action_up_short = raw_current_inv & raw_delayed & ~long_press_mask;
	//button_action_up_long  = raw_current_inv & raw_delayed & long_press_mask;
	button_action_long  = raw_current & long_press_event_mask;
	
	// Compose button state
	button_state = (button_action_down & (BD_MENU | BD_UP | BD_DOWN | BD_ROTFWD | BD_ROTREV | BD_HEATCTRL));
     3d2:	90 93 c5 00 	sts	0x00C5, r25
     3d6:	80 93 c4 00 	sts	0x00C4, r24
     3da:	05 c0       	rjmp	.+10     	; 0x3e6 <process_buttons+0x94>
	if (button_action_up_short & BD_MENU)
		button_state |= BS_MENU;
     3dc:	91 60       	ori	r25, 0x01	; 1
     3de:	90 93 c5 00 	sts	0x00C5, r25
     3e2:	80 93 c4 00 	sts	0x00C4, r24
	//if (button_action_up_long & BD_MENU)
	if (button_action_long & BD_MENU)
     3e6:	50 ff       	sbrs	r21, 0
     3e8:	09 c0       	rjmp	.+18     	; 0x3fc <process_buttons+0xaa>
		button_state |= BL_MENU;
     3ea:	80 91 c4 00 	lds	r24, 0x00C4
     3ee:	90 91 c5 00 	lds	r25, 0x00C5
     3f2:	92 60       	ori	r25, 0x02	; 2
     3f4:	90 93 c5 00 	sts	0x00C5, r25
     3f8:	80 93 c4 00 	sts	0x00C4, r24
	if (button_action_rep & BD_UP)
     3fc:	21 ff       	sbrs	r18, 1
     3fe:	09 c0       	rjmp	.+18     	; 0x412 <process_buttons+0xc0>
		button_state |= BR_UP;	
     400:	80 91 c4 00 	lds	r24, 0x00C4
     404:	90 91 c5 00 	lds	r25, 0x00C5
     408:	94 60       	ori	r25, 0x04	; 4
     40a:	90 93 c5 00 	sts	0x00C5, r25
     40e:	80 93 c4 00 	sts	0x00C4, r24
	if (button_action_rep & BD_DOWN)
     412:	22 ff       	sbrs	r18, 2
     414:	10 c0       	rjmp	.+32     	; 0x436 <process_buttons+0xe4>
		button_state |= BR_DOWN;
     416:	80 91 c4 00 	lds	r24, 0x00C4
     41a:	90 91 c5 00 	lds	r25, 0x00C5
     41e:	98 60       	ori	r25, 0x08	; 8
     420:	90 93 c5 00 	sts	0x00C5, r25
     424:	80 93 c4 00 	sts	0x00C4, r24
     428:	08 95       	ret
	}
	
	// Must after press_timer update
	long_press_event_mask = (press_timer == LONG_PRESS_DELAY) ? 0xFF : 0x00;
			
	button_action_down = raw_current & raw_delayed_inv;
     42a:	83 2f       	mov	r24, r19
     42c:	82 23       	and	r24, r18
     42e:	80 93 c3 00 	sts	0x00C3, r24
	{
		press_timer++;
	}
	
	// Must after press_timer update
	long_press_event_mask = (press_timer == LONG_PRESS_DELAY) ? 0xFF : 0x00;
     432:	5f ef       	ldi	r21, 0xFF	; 255
     434:	bc cf       	rjmp	.-136    	; 0x3ae <process_buttons+0x5c>
     436:	08 95       	ret

00000438 <processRollControl>:
// Function to control motor rotation
void processRollControl(void)
{	
	static uint8_t nextBeepDelay = 0;
	// Control direction by buttons
	if (button_state & BD_ROTFWD)
     438:	80 91 c4 00 	lds	r24, 0x00C4
     43c:	84 ff       	sbrs	r24, 4
     43e:	03 c0       	rjmp	.+6      	; 0x446 <processRollControl+0xe>
		setMotorDirection(ROLL_FWD);	
     440:	81 e0       	ldi	r24, 0x01	; 1
     442:	9d d6       	rcall	.+3386   	; 0x117e <setMotorDirection>
     444:	04 c0       	rjmp	.+8      	; 0x44e <processRollControl+0x16>
	else if (button_state & BD_ROTREV)
     446:	85 ff       	sbrs	r24, 5
     448:	02 c0       	rjmp	.+4      	; 0x44e <processRollControl+0x16>
		setMotorDirection(ROLL_REV);
     44a:	82 e0       	ldi	r24, 0x02	; 2
     44c:	98 d6       	rcall	.+3376   	; 0x117e <setMotorDirection>
		
	// TODO: add reset of points by long pressing of ROLL button
	
	if (button_action_down & (BD_ROTFWD | BD_ROTREV) )	
     44e:	80 91 c3 00 	lds	r24, 0x00C3
     452:	80 73       	andi	r24, 0x30	; 48
     454:	49 f0       	breq	.+18     	; 0x468 <__stack+0x9>
	{
		SetBeeperFreq(1000);
     456:	88 ee       	ldi	r24, 0xE8	; 232
     458:	93 e0       	ldi	r25, 0x03	; 3
     45a:	19 d8       	rcall	.-4046   	; 0xfffff48e <__eeprom_end+0xff7ef48e>
		StartBeep(50);	
     45c:	82 e3       	ldi	r24, 0x32	; 50
     45e:	90 e0       	ldi	r25, 0x00	; 0
     460:	37 d8       	rcall	.-3986   	; 0xfffff4d0 <__eeprom_end+0xff7ef4d0>
		nextBeepDelay = 2;
     462:	82 e0       	ldi	r24, 0x02	; 2
     464:	80 93 c8 00 	sts	0x00C8, r24
	}		
		
		
	if (button_action_down & 0x80)
     468:	80 91 c3 00 	lds	r24, 0x00C3
     46c:	88 23       	and	r24, r24
     46e:	e4 f4       	brge	.+56     	; 0x4a8 <__stack+0x49>
	{
		if (rollState & ROLL_CYCLE)
     470:	80 91 d0 00 	lds	r24, 0x00D0
     474:	82 ff       	sbrs	r24, 2
     476:	08 c0       	rjmp	.+16     	; 0x488 <__stack+0x29>
		{
			stopCycleRolling();
     478:	c8 d6       	rcall	.+3472   	; 0x120a <stopCycleRolling>
			SetBeeperFreq(1000);
     47a:	88 ee       	ldi	r24, 0xE8	; 232
     47c:	93 e0       	ldi	r25, 0x03	; 3
     47e:	07 d8       	rcall	.-4082   	; 0xfffff48e <__eeprom_end+0xff7ef48e>
			StartBeep(50);
     480:	82 e3       	ldi	r24, 0x32	; 50
     482:	90 e0       	ldi	r25, 0x00	; 0
     484:	25 d8       	rcall	.-4022   	; 0xfffff4d0 <__eeprom_end+0xff7ef4d0>
     486:	10 c0       	rjmp	.+32     	; 0x4a8 <__stack+0x49>
		}
		else if (startCycleRolling())
     488:	98 d6       	rcall	.+3376   	; 0x11ba <startCycleRolling>
     48a:	88 23       	and	r24, r24
     48c:	39 f0       	breq	.+14     	; 0x49c <__stack+0x3d>
		{
			SetBeeperFreq(1000);
     48e:	88 ee       	ldi	r24, 0xE8	; 232
     490:	93 e0       	ldi	r25, 0x03	; 3
     492:	fd d7       	rcall	.+4090   	; 0x148e <SetBeeperFreq>
			StartBeep(100);
     494:	84 e6       	ldi	r24, 0x64	; 100
     496:	90 e0       	ldi	r25, 0x00	; 0
     498:	1b d8       	rcall	.-4042   	; 0xfffff4d0 <__eeprom_end+0xff7ef4d0>
     49a:	06 c0       	rjmp	.+12     	; 0x4a8 <__stack+0x49>
		}
		else
		{
			SetBeeperFreq(500);
     49c:	84 ef       	ldi	r24, 0xF4	; 244
     49e:	91 e0       	ldi	r25, 0x01	; 1
     4a0:	f6 d7       	rcall	.+4076   	; 0x148e <SetBeeperFreq>
			StartBeep(50);
     4a2:	82 e3       	ldi	r24, 0x32	; 50
     4a4:	90 e0       	ldi	r25, 0x00	; 0
     4a6:	14 d8       	rcall	.-4056   	; 0xfffff4d0 <__eeprom_end+0xff7ef4d0>
		}
	}
	
	if (nextBeepDelay == 0)
     4a8:	80 91 c8 00 	lds	r24, 0x00C8
     4ac:	81 11       	cpse	r24, r1
     4ae:	1a c0       	rjmp	.+52     	; 0x4e4 <__stack+0x85>
	{
		if (rollState & CYCLE_ROLL_DONE)
     4b0:	80 91 d0 00 	lds	r24, 0x00D0
     4b4:	84 ff       	sbrs	r24, 4
     4b6:	0a c0       	rjmp	.+20     	; 0x4cc <__stack+0x6d>
		{
			rollState &= ~CYCLE_ROLL_DONE;
     4b8:	8f 7e       	andi	r24, 0xEF	; 239
     4ba:	80 93 d0 00 	sts	0x00D0, r24
			SetBeeperFreq(1000);
     4be:	88 ee       	ldi	r24, 0xE8	; 232
     4c0:	93 e0       	ldi	r25, 0x03	; 3
     4c2:	e5 d7       	rcall	.+4042   	; 0x148e <SetBeeperFreq>
			StartBeep(200);
     4c4:	88 ec       	ldi	r24, 0xC8	; 200
     4c6:	90 e0       	ldi	r25, 0x00	; 0
     4c8:	03 d8       	rcall	.-4090   	; 0xfffff4d0 <__eeprom_end+0xff7ef4d0>
     4ca:	0f c0       	rjmp	.+30     	; 0x4ea <__stack+0x8b>
		}
		else if (rollState & ROLL_DIR_CHANGED)
     4cc:	85 ff       	sbrs	r24, 5
     4ce:	0d c0       	rjmp	.+26     	; 0x4ea <__stack+0x8b>
		{
			rollState &= ~ROLL_DIR_CHANGED;
     4d0:	8f 7d       	andi	r24, 0xDF	; 223
     4d2:	80 93 d0 00 	sts	0x00D0, r24
			SetBeeperFreq(1000);
     4d6:	88 ee       	ldi	r24, 0xE8	; 232
     4d8:	93 e0       	ldi	r25, 0x03	; 3
     4da:	d9 d7       	rcall	.+4018   	; 0x148e <SetBeeperFreq>
			StartBeep(50);
     4dc:	82 e3       	ldi	r24, 0x32	; 50
     4de:	90 e0       	ldi	r25, 0x00	; 0
     4e0:	f7 d7       	rcall	.+4078   	; 0x14d0 <StartBeep>
     4e2:	03 c0       	rjmp	.+6      	; 0x4ea <__stack+0x8b>
		}	
	}
	else
	{
		nextBeepDelay--;	
     4e4:	81 50       	subi	r24, 0x01	; 1
     4e6:	80 93 c8 00 	sts	0x00C8, r24
	}		
			
	
		
	// Indicate direction by LEDs
	clearExtraLeds(LED_ROTFWD | LED_ROTREV);
     4ea:	80 e3       	ldi	r24, 0x30	; 48
     4ec:	94 d1       	rcall	.+808    	; 0x816 <clearExtraLeds>
	if (rollState & ROLL_FWD)
     4ee:	80 91 d0 00 	lds	r24, 0x00D0
     4f2:	80 ff       	sbrs	r24, 0
     4f4:	03 c0       	rjmp	.+6      	; 0x4fc <__stack+0x9d>
		setExtraLeds(LED_ROTFWD);
     4f6:	80 e1       	ldi	r24, 0x10	; 16
     4f8:	88 d1       	rcall	.+784    	; 0x80a <setExtraLeds>
     4fa:	08 95       	ret
	else if (rollState & ROLL_REV)
     4fc:	81 ff       	sbrs	r24, 1
     4fe:	02 c0       	rjmp	.+4      	; 0x504 <__stack+0xa5>
		setExtraLeds(LED_ROTREV);
     500:	80 e2       	ldi	r24, 0x20	; 32
     502:	83 d1       	rcall	.+774    	; 0x80a <setExtraLeds>
     504:	08 95       	ret

00000506 <processHeaterControl>:
{
	// p_flags & HEATER_ENABLED
	static uint8_t heater_ctrl = 0;
	
	// Process heater ON/OFF control by button
	if (button_state & BD_HEATCTRL)
     506:	80 91 c4 00 	lds	r24, 0x00C4
     50a:	86 ff       	sbrs	r24, 6
     50c:	06 c0       	rjmp	.+12     	; 0x51a <processHeaterControl+0x14>
	{
		heater_ctrl ^= 0x01;
     50e:	90 91 c9 00 	lds	r25, 0x00C9
     512:	81 e0       	ldi	r24, 0x01	; 1
     514:	89 27       	eor	r24, r25
     516:	80 93 c9 00 	sts	0x00C9, r24
	}
	
	
	if (heater_ctrl)
     51a:	80 91 c9 00 	lds	r24, 0x00C9
     51e:	88 23       	and	r24, r24
     520:	29 f0       	breq	.+10     	; 0x52c <processHeaterControl+0x26>
		// Heater enabled

		//-----------------//
		// Process PID
		//// TODO!!!!
		setHeaterControl(10);
     522:	8a e0       	ldi	r24, 0x0A	; 10
     524:	1c d6       	rcall	.+3128   	; 0x115e <setHeaterControl>
		//-----------------//
		
		setExtraLeds(LED_HEATER);
     526:	80 e4       	ldi	r24, 0x40	; 64
     528:	70 d1       	rcall	.+736    	; 0x80a <setExtraLeds>
     52a:	08 95       	ret
	}
	else
	{
		// Heater disabled
		setHeaterControl(0);
     52c:	80 e0       	ldi	r24, 0x00	; 0
     52e:	17 d6       	rcall	.+3118   	; 0x115e <setHeaterControl>
		clearExtraLeds(LED_HEATER);
     530:	80 e4       	ldi	r24, 0x40	; 64
     532:	71 d1       	rcall	.+738    	; 0x816 <clearExtraLeds>
     534:	08 95       	ret

00000536 <decode_led_char>:
// Decodes normal string literal to the 
//	7-segment representation
//---------------------------------------------//
static uint8_t decode_led_char(char c)
{
	switch(c)
     536:	48 2f       	mov	r20, r24
     538:	50 e0       	ldi	r21, 0x00	; 0
     53a:	fa 01       	movw	r30, r20
     53c:	b0 97       	sbiw	r30, 0x20	; 32
     53e:	e1 39       	cpi	r30, 0x91	; 145
     540:	f1 05       	cpc	r31, r1
     542:	70 f5       	brcc	.+92     	; 0x5a0 <decode_led_char+0x6a>
     544:	ed 5e       	subi	r30, 0xED	; 237
     546:	ff 4f       	sbci	r31, 0xFF	; 255
     548:	09 94       	ijmp
	{
		case 'O':
		case '0': return (SEGA | SEGB | SEGC | SEGD | SEGE | SEGF);
     54a:	8f e3       	ldi	r24, 0x3F	; 63
     54c:	08 95       	ret
		case '1': return (SEGB | SEGC );
		case '2': return (SEGA | SEGB | SEGD | SEGE | SEGG);
     54e:	8b e5       	ldi	r24, 0x5B	; 91
     550:	08 95       	ret
		case '3': return (SEGA | SEGB | SEGC | SEGD | SEGG);
     552:	8f e4       	ldi	r24, 0x4F	; 79
     554:	08 95       	ret
		case '4': return (SEGB | SEGC | SEGF | SEGG);
     556:	86 e6       	ldi	r24, 0x66	; 102
     558:	08 95       	ret
		case 'S':
		case '5': return (SEGA | SEGC | SEGD | SEGF | SEGG);
     55a:	8d e6       	ldi	r24, 0x6D	; 109
     55c:	08 95       	ret
		case '6': return (SEGA | SEGC | SEGD | SEGE | SEGF | SEGG);
     55e:	8d e7       	ldi	r24, 0x7D	; 125
     560:	08 95       	ret
		case '7': return (SEGA | SEGB | SEGC );
     562:	87 e0       	ldi	r24, 0x07	; 7
     564:	08 95       	ret
		case '8': return (SEGA | SEGB | SEGC | SEGD | SEGE | SEGF | SEGG);
     566:	8f e7       	ldi	r24, 0x7F	; 127
     568:	08 95       	ret
		case '9': return (SEGA | SEGB | SEGC | SEGD | SEGF | SEGG);
     56a:	8f e6       	ldi	r24, 0x6F	; 111
     56c:	08 95       	ret
		case '.': return (SEGH);
     56e:	80 e8       	ldi	r24, 0x80	; 128
     570:	08 95       	ret
		case ',': return (SEGH);
     572:	80 e8       	ldi	r24, 0x80	; 128
     574:	08 95       	ret
		case '-': return (SEGG);
     576:	80 e4       	ldi	r24, 0x40	; 64
     578:	08 95       	ret
		case '_': return (SEGD);
     57a:	88 e0       	ldi	r24, 0x08	; 8
     57c:	08 95       	ret
		case ' ': return 0;
     57e:	80 e0       	ldi	r24, 0x00	; 0
     580:	08 95       	ret
		case 0xB0:	return (SEGA | SEGB | SEGF | SEGG);		// Degree sin
     582:	83 e6       	ldi	r24, 0x63	; 99
     584:	08 95       	ret
		case 'C':	return (SEGA | SEGD | SEGE | SEGF);
     586:	89 e3       	ldi	r24, 0x39	; 57
     588:	08 95       	ret
		case 'F':	return (SEGA | SEGE | SEGF | SEGG);
     58a:	81 e7       	ldi	r24, 0x71	; 113
     58c:	08 95       	ret
		case 'N':	return (SEGC | SEGE | SEGG);
     58e:	84 e5       	ldi	r24, 0x54	; 84
     590:	08 95       	ret
		case 'D': return (SEGB | SEGC | SEGD | SEGE | SEGG);
     592:	8e e5       	ldi	r24, 0x5E	; 94
     594:	08 95       	ret
		case 'P': return (SEGA | SEGB | SEGE | SEGF | SEGG);
     596:	83 e7       	ldi	r24, 0x73	; 115
     598:	08 95       	ret
		case 'E': return (SEGA | SEGD | SEGE | SEGF | SEGG);
     59a:	89 e7       	ldi	r24, 0x79	; 121
     59c:	08 95       	ret
{
	switch(c)
	{
		case 'O':
		case '0': return (SEGA | SEGB | SEGC | SEGD | SEGE | SEGF);
		case '1': return (SEGB | SEGC );
     59e:	86 e0       	ldi	r24, 0x06	; 6
		case 'D': return (SEGB | SEGC | SEGD | SEGE | SEGG);
		case 'P': return (SEGA | SEGB | SEGE | SEGF | SEGG);
		case 'E': return (SEGA | SEGD | SEGE | SEGF | SEGG);
		default:  return c;	
	}
}
     5a0:	08 95       	ret

000005a2 <wrap_led_buffer_index>:
//---------------------------------------------//
// Ensures that index is inside the buffer
// -128 <= index <= 127
//---------------------------------------------//
static uint8_t wrap_led_buffer_index(int8_t buf_index)
{
     5a2:	98 2f       	mov	r25, r24
	uint8_t new_index_u;
	new_index_u = (uint8_t) ((buf_index < 0) ? -buf_index : buf_index);
     5a4:	87 fd       	sbrc	r24, 7
     5a6:	81 95       	neg	r24
	if (new_index_u >= LED_BUFFER_LENGTH)
     5a8:	8e 30       	cpi	r24, 0x0E	; 14
     5aa:	78 f0       	brcs	.+30     	; 0x5ca <wrap_led_buffer_index+0x28>
		new_index_u = new_index_u % LED_BUFFER_LENGTH;
     5ac:	38 2f       	mov	r19, r24
     5ae:	36 95       	lsr	r19
     5b0:	23 e9       	ldi	r18, 0x93	; 147
     5b2:	32 9f       	mul	r19, r18
     5b4:	21 2d       	mov	r18, r1
     5b6:	11 24       	eor	r1, r1
     5b8:	26 95       	lsr	r18
     5ba:	26 95       	lsr	r18
     5bc:	22 0f       	add	r18, r18
     5be:	32 2f       	mov	r19, r18
     5c0:	33 0f       	add	r19, r19
     5c2:	33 0f       	add	r19, r19
     5c4:	33 0f       	add	r19, r19
     5c6:	32 1b       	sub	r19, r18
     5c8:	83 1b       	sub	r24, r19
	new_index_u = ((buf_index >= 0) || (new_index_u == 0)) ? new_index_u :  LED_BUFFER_LENGTH - new_index_u ;
     5ca:	99 23       	and	r25, r25
     5cc:	2c f4       	brge	.+10     	; 0x5d8 <wrap_led_buffer_index+0x36>
     5ce:	88 23       	and	r24, r24
     5d0:	19 f0       	breq	.+6      	; 0x5d8 <wrap_led_buffer_index+0x36>
     5d2:	9e e0       	ldi	r25, 0x0E	; 14
     5d4:	98 1b       	sub	r25, r24
     5d6:	89 2f       	mov	r24, r25
	return new_index_u;
}
     5d8:	08 95       	ret

000005da <processLedIndicator>:
// Call this function N times per sec to get N/NUM_DIGITS_TOTAL display update rate, where
// NUM_DIGITS_TOTAL is number_of_digits_of_LED_display if no extra LEDs are used or
// (number_of_digits_of_LED_display + 1) otherwise.
//---------------------------------------------//
void processLedIndicator()
{
     5da:	cf 93       	push	r28
	disable_led_segments();
	#endif
	
	
	// Perform regular shift
	led_clock_pulse(!LED_DIGIT_ACT_LVL);
     5dc:	81 e0       	ldi	r24, 0x01	; 1
     5de:	22 d1       	rcall	.+580    	; 0x824 <led_clock_pulse>
	
	switch (wActivePos)
     5e0:	80 91 cb 00 	lds	r24, 0x00CB
     5e4:	88 23       	and	r24, r24
     5e6:	19 f0       	breq	.+6      	; 0x5ee <processLedIndicator+0x14>
     5e8:	86 30       	cpi	r24, 0x06	; 6
     5ea:	f1 f5       	brne	.+124    	; 0x668 <processLedIndicator+0x8e>
     5ec:	12 c0       	rjmp	.+36     	; 0x612 <processLedIndicator+0x38>
	{
	case 0:
		// Get buttons
		#ifndef CLEAN_OPERATION
		disable_led_segments();
     5ee:	46 d1       	rcall	.+652    	; 0x87c <disable_led_segments>
		#endif
		enable_led_segments_pullups();
     5f0:	37 d1       	rcall	.+622    	; 0x860 <enable_led_segments_pullups>
	#else
		//round up by default
		__ticks_dc = (uint32_t)(ceil(fabs(__tmp)));
	#endif

	__builtin_avr_delay_cycles(__ticks_dc);
     5f2:	85 e3       	ldi	r24, 0x35	; 53
     5f4:	8a 95       	dec	r24
     5f6:	f1 f7       	brne	.-4      	; 0x5f4 <processLedIndicator+0x1a>
     5f8:	00 00       	nop
		_delay_us(PULLUP_DELAY_US);
		capture_button_state();
     5fa:	47 d1       	rcall	.+654    	; 0x88a <capture_button_state>
		#ifndef CLEAN_OPERATION
		enable_led_segments();
     5fc:	38 d1       	rcall	.+624    	; 0x86e <enable_led_segments>
		#endif
		// Start new cycle with active digit level
		led_clock_pulse(LED_DIGIT_ACT_LVL);
     5fe:	80 e0       	ldi	r24, 0x00	; 0
     600:	11 d1       	rcall	.+546    	; 0x824 <led_clock_pulse>
		// Always start new cycle from specified buffer start position
		bufActivePos = wStartPos;
     602:	80 91 db 00 	lds	r24, 0x00DB
     606:	80 93 ca 00 	sts	0x00CA, r24
		next_wActivePos = wActivePos + 1;
     60a:	c0 91 cb 00 	lds	r28, 0x00CB
     60e:	cf 5f       	subi	r28, 0xFF	; 255
		break;
     610:	2f c0       	rjmp	.+94     	; 0x670 <processLedIndicator+0x96>
//---------------------------------------------//
// Performs window shifting
//---------------------------------------------//
static void processWindowShifter(void)
{
	if (shifterState == LED_SHIFT_DONE)
     612:	80 91 dc 00 	lds	r24, 0x00DC
     616:	88 23       	and	r24, r24
     618:	81 f1       	breq	.+96     	; 0x67a <processLedIndicator+0xa0>
		return;
	
	// Process shift timer
	processSoftTimer8b(&shiftTimer);	
     61a:	8c ec       	ldi	r24, 0xCC	; 204
     61c:	90 e0       	ldi	r25, 0x00	; 0
     61e:	09 d7       	rcall	.+3602   	; 0x1432 <processSoftTimer8b>
	
	if (shiftTimer.FTop)
     620:	80 91 cc 00 	lds	r24, 0x00CC
     624:	85 ff       	sbrs	r24, 5
     626:	23 c0       	rjmp	.+70     	; 0x66e <processLedIndicator+0x94>
	{
		// Check if finished
		if (wStartPos == bufStartPos)	
     628:	80 91 db 00 	lds	r24, 0x00DB
     62c:	90 91 dd 00 	lds	r25, 0x00DD
     630:	89 13       	cpse	r24, r25
     632:	04 c0       	rjmp	.+8      	; 0x63c <processLedIndicator+0x62>
		{
			// Update state
			shifterState = LED_SHIFT_DONE;
     634:	10 92 dc 00 	sts	0x00DC, r1
		// Always start new cycle from specified buffer start position
		bufActivePos = wStartPos;
		next_wActivePos = wActivePos + 1;
		break;
	case NUM_DIGITS_TOTAL-1:
		next_wActivePos = 0;
     638:	c0 e0       	ldi	r28, 0x00	; 0
     63a:	1a c0       	rjmp	.+52     	; 0x670 <processLedIndicator+0x96>
		if (wStartPos == bufStartPos)	
		{
			// Update state
			shifterState = LED_SHIFT_DONE;
		}
		else if (shifterState == LED_SHIFT_RIGHT)
     63c:	90 91 dc 00 	lds	r25, 0x00DC
     640:	92 30       	cpi	r25, 0x02	; 2
     642:	49 f4       	brne	.+18     	; 0x656 <processLedIndicator+0x7c>
// Increments index. If index falls out of buffer range,
// index is wrapped
//---------------------------------------------//
static inline uint8_t inc_buffer_position(uint8_t position)
{
	return (position >= LED_BUFFER_LENGTH - 1) ? 0 : position + 1;
     644:	8d 30       	cpi	r24, 0x0D	; 13
     646:	10 f4       	brcc	.+4      	; 0x64c <processLedIndicator+0x72>
     648:	8f 5f       	subi	r24, 0xFF	; 255
     64a:	01 c0       	rjmp	.+2      	; 0x64e <processLedIndicator+0x74>
     64c:	80 e0       	ldi	r24, 0x00	; 0
			// Update state
			shifterState = LED_SHIFT_DONE;
		}
		else if (shifterState == LED_SHIFT_RIGHT)
		{
			wStartPos = inc_buffer_position(wStartPos);	
     64e:	80 93 db 00 	sts	0x00DB, r24
		// Always start new cycle from specified buffer start position
		bufActivePos = wStartPos;
		next_wActivePos = wActivePos + 1;
		break;
	case NUM_DIGITS_TOTAL-1:
		next_wActivePos = 0;
     652:	c0 e0       	ldi	r28, 0x00	; 0
     654:	0d c0       	rjmp	.+26     	; 0x670 <processLedIndicator+0x96>
// Decrements index. If index falls out of buffer range,
// index is wrapped
//---------------------------------------------//
static inline uint8_t dec_buffer_position(uint8_t position)
{
	return (position == 0) ? LED_BUFFER_LENGTH - 1 : position - 1;
     656:	88 23       	and	r24, r24
     658:	11 f0       	breq	.+4      	; 0x65e <processLedIndicator+0x84>
     65a:	81 50       	subi	r24, 0x01	; 1
     65c:	01 c0       	rjmp	.+2      	; 0x660 <processLedIndicator+0x86>
     65e:	8d e0       	ldi	r24, 0x0D	; 13
		{
			wStartPos = inc_buffer_position(wStartPos);	
		}
		else
		{
			wStartPos = dec_buffer_position(wStartPos);		
     660:	80 93 db 00 	sts	0x00DB, r24
		// Always start new cycle from specified buffer start position
		bufActivePos = wStartPos;
		next_wActivePos = wActivePos + 1;
		break;
	case NUM_DIGITS_TOTAL-1:
		next_wActivePos = 0;
     664:	c0 e0       	ldi	r28, 0x00	; 0
     666:	04 c0       	rjmp	.+8      	; 0x670 <processLedIndicator+0x96>
		// Shift LED window
		processWindowShifter();	
		break;
	default:
		next_wActivePos = wActivePos + 1;
     668:	c8 2f       	mov	r28, r24
     66a:	cf 5f       	subi	r28, 0xFF	; 255
		break;
     66c:	01 c0       	rjmp	.+2      	; 0x670 <processLedIndicator+0x96>
		// Always start new cycle from specified buffer start position
		bufActivePos = wStartPos;
		next_wActivePos = wActivePos + 1;
		break;
	case NUM_DIGITS_TOTAL-1:
		next_wActivePos = 0;
     66e:	c0 e0       	ldi	r28, 0x00	; 0
		next_wActivePos = wActivePos + 1;
		break;
	}		
	
	#ifdef 	USE_EXTRA_LED_DIGIT
	if (wActivePos == EXTRA_DIGIT_NUM)
     670:	80 91 cb 00 	lds	r24, 0x00CB
     674:	86 30       	cpi	r24, 0x06	; 6
     676:	31 f4       	brne	.+12     	; 0x684 <processLedIndicator+0xaa>
     678:	01 c0       	rjmp	.+2      	; 0x67c <processLedIndicator+0xa2>
		// Always start new cycle from specified buffer start position
		bufActivePos = wStartPos;
		next_wActivePos = wActivePos + 1;
		break;
	case NUM_DIGITS_TOTAL-1:
		next_wActivePos = 0;
     67a:	c0 e0       	ldi	r28, 0x00	; 0
	
	#ifdef 	USE_EXTRA_LED_DIGIT
	if (wActivePos == EXTRA_DIGIT_NUM)
	{
		// Output separate LEDs state
		set_led_segments(extra_led_state);
     67c:	80 91 da 00 	lds	r24, 0x00DA
     680:	e1 d0       	rcall	.+450    	; 0x844 <set_led_segments>
     682:	10 c0       	rjmp	.+32     	; 0x6a4 <processLedIndicator+0xca>
	}
	else
	#endif
	{
		// Output new segment data
		set_led_segments(led_data_buffer[bufActivePos]);
     684:	e0 91 ca 00 	lds	r30, 0x00CA
     688:	f0 e0       	ldi	r31, 0x00	; 0
     68a:	e2 52       	subi	r30, 0x22	; 34
     68c:	ff 4f       	sbci	r31, 0xFF	; 255
     68e:	80 81       	ld	r24, Z
     690:	d9 d0       	rcall	.+434    	; 0x844 <set_led_segments>
		// Wrap around buffer length
		bufActivePos = inc_buffer_position(bufActivePos );
     692:	90 91 ca 00 	lds	r25, 0x00CA
// Increments index. If index falls out of buffer range,
// index is wrapped
//---------------------------------------------//
static inline uint8_t inc_buffer_position(uint8_t position)
{
	return (position >= LED_BUFFER_LENGTH - 1) ? 0 : position + 1;
     696:	9d 30       	cpi	r25, 0x0D	; 13
     698:	10 f4       	brcc	.+4      	; 0x69e <processLedIndicator+0xc4>
     69a:	9f 5f       	subi	r25, 0xFF	; 255
     69c:	01 c0       	rjmp	.+2      	; 0x6a0 <processLedIndicator+0xc6>
     69e:	90 e0       	ldi	r25, 0x00	; 0
	#endif
	{
		// Output new segment data
		set_led_segments(led_data_buffer[bufActivePos]);
		// Wrap around buffer length
		bufActivePos = inc_buffer_position(bufActivePos );
     6a0:	90 93 ca 00 	sts	0x00CA, r25
	}
		
	wActivePos = next_wActivePos;
     6a4:	c0 93 cb 00 	sts	0x00CB, r28
	
	#ifdef CLEAN_OPERATION
	enable_led_segments();
	#endif

}
     6a8:	cf 91       	pop	r28
     6aa:	08 95       	ret

000006ac <fillLedBuffer>:
//---------------------------------------------//
// Fills buffer from (bufStartPos + offset) 
//	position with single char
//---------------------------------------------//
void fillLedBuffer(int8_t offset, uint8_t length, char c)
{
     6ac:	1f 93       	push	r17
     6ae:	cf 93       	push	r28
     6b0:	df 93       	push	r29
     6b2:	18 2f       	mov	r17, r24
     6b4:	c6 2f       	mov	r28, r22
     6b6:	84 2f       	mov	r24, r20
	uint8_t val = decode_led_char(c);
     6b8:	3e df       	rcall	.-388    	; 0x536 <decode_led_char>
     6ba:	d8 2f       	mov	r29, r24
	// Ensure index is inside the buffer
	uint8_t position = wrap_led_buffer_index((int8_t)bufStartPos + offset);
     6bc:	80 91 dd 00 	lds	r24, 0x00DD
     6c0:	81 0f       	add	r24, r17
     6c2:	6f df       	rcall	.-290    	; 0x5a2 <wrap_led_buffer_index>
// Increments index. If index falls out of buffer range,
// index is wrapped
//---------------------------------------------//
static inline uint8_t inc_buffer_position(uint8_t position)
{
	return (position >= LED_BUFFER_LENGTH - 1) ? 0 : position + 1;
     6c4:	90 e0       	ldi	r25, 0x00	; 0
void fillLedBuffer(int8_t offset, uint8_t length, char c)
{
	uint8_t val = decode_led_char(c);
	// Ensure index is inside the buffer
	uint8_t position = wrap_led_buffer_index((int8_t)bufStartPos + offset);
	while(length--)
     6c6:	0a c0       	rjmp	.+20     	; 0x6dc <fillLedBuffer+0x30>
	{
		led_data_buffer[position] = val;
     6c8:	e8 2f       	mov	r30, r24
     6ca:	f0 e0       	ldi	r31, 0x00	; 0
     6cc:	e2 52       	subi	r30, 0x22	; 34
     6ce:	ff 4f       	sbci	r31, 0xFF	; 255
     6d0:	d0 83       	st	Z, r29
// Increments index. If index falls out of buffer range,
// index is wrapped
//---------------------------------------------//
static inline uint8_t inc_buffer_position(uint8_t position)
{
	return (position >= LED_BUFFER_LENGTH - 1) ? 0 : position + 1;
     6d2:	8d 30       	cpi	r24, 0x0D	; 13
     6d4:	10 f4       	brcc	.+4      	; 0x6da <fillLedBuffer+0x2e>
     6d6:	8f 5f       	subi	r24, 0xFF	; 255
     6d8:	01 c0       	rjmp	.+2      	; 0x6dc <fillLedBuffer+0x30>
     6da:	89 2f       	mov	r24, r25
void fillLedBuffer(int8_t offset, uint8_t length, char c)
{
	uint8_t val = decode_led_char(c);
	// Ensure index is inside the buffer
	uint8_t position = wrap_led_buffer_index((int8_t)bufStartPos + offset);
	while(length--)
     6dc:	c1 50       	subi	r28, 0x01	; 1
     6de:	a0 f7       	brcc	.-24     	; 0x6c8 <fillLedBuffer+0x1c>
	{
		led_data_buffer[position] = val;
		position = inc_buffer_position(position);
	}
}
     6e0:	df 91       	pop	r29
     6e2:	cf 91       	pop	r28
     6e4:	1f 91       	pop	r17
     6e6:	08 95       	ret

000006e8 <startShiftingWindowLeft>:
//	LED window left 
//---------------------------------------------//
void startShiftingWindowLeft(void)
{
	// Clear spaces between menu states
	fillLedBuffer(-2,2,' ');
     6e8:	40 e2       	ldi	r20, 0x20	; 32
     6ea:	62 e0       	ldi	r22, 0x02	; 2
     6ec:	8e ef       	ldi	r24, 0xFE	; 254
     6ee:	de df       	rcall	.-68     	; 0x6ac <fillLedBuffer>
	// Set new buffer position for writing
	bufStartPos = wrap_led_buffer_index( (int8_t)bufStartPos - (NUM_DIGITS + 2) );
     6f0:	80 91 dd 00 	lds	r24, 0x00DD
     6f4:	88 50       	subi	r24, 0x08	; 8
     6f6:	55 df       	rcall	.-342    	; 0x5a2 <wrap_led_buffer_index>
     6f8:	80 93 dd 00 	sts	0x00DD, r24
	// Set shifter state
	shifterState = LED_SHIFT_LEFT;
     6fc:	81 e0       	ldi	r24, 0x01	; 1
     6fe:	80 93 dc 00 	sts	0x00DC, r24
     702:	08 95       	ret

00000704 <startShiftingWindowRight>:
//	LED window right 
//---------------------------------------------//
void startShiftingWindowRight(void)
{
	// Clear spaces between menu states
	fillLedBuffer(NUM_DIGITS,2,' ');
     704:	40 e2       	ldi	r20, 0x20	; 32
     706:	62 e0       	ldi	r22, 0x02	; 2
     708:	86 e0       	ldi	r24, 0x06	; 6
     70a:	d0 df       	rcall	.-96     	; 0x6ac <fillLedBuffer>
	// Set new buffer position for writing
	bufStartPos = wrap_led_buffer_index( (int8_t)bufStartPos + NUM_DIGITS + 2 );
     70c:	80 91 dd 00 	lds	r24, 0x00DD
     710:	88 5f       	subi	r24, 0xF8	; 248
     712:	47 df       	rcall	.-370    	; 0x5a2 <wrap_led_buffer_index>
     714:	80 93 dd 00 	sts	0x00DD, r24
	// Set shifter state
	shifterState = LED_SHIFT_RIGHT;
     718:	82 e0       	ldi	r24, 0x02	; 2
     71a:	80 93 dc 00 	sts	0x00DC, r24
     71e:	08 95       	ret

00000720 <initLedIndicator>:
//---------------------------------------------//
//	Initialization
//	Call this function at start of your program
//---------------------------------------------//
void initLedIndicator()
{
     720:	cf 93       	push	r28
	uint8_t i;
	// First disable outputs
	disable_led_segments();
     722:	ac d0       	rcall	.+344    	; 0x87c <disable_led_segments>
     724:	c7 e0       	ldi	r28, 0x07	; 7
	// Fill shift register with non-active levels
	for (i=0;i<NUM_DIGITS_TOTAL;i++)
	{
		led_clock_pulse(!LED_DIGIT_ACT_LVL);
     726:	81 e0       	ldi	r24, 0x01	; 1
     728:	7d d0       	rcall	.+250    	; 0x824 <led_clock_pulse>
     72a:	c1 50       	subi	r28, 0x01	; 1
{
	uint8_t i;
	// First disable outputs
	disable_led_segments();
	// Fill shift register with non-active levels
	for (i=0;i<NUM_DIGITS_TOTAL;i++)
     72c:	e1 f7       	brne	.-8      	; 0x726 <initLedIndicator+0x6>
	{
		led_clock_pulse(!LED_DIGIT_ACT_LVL);
	}
	// Now enable outputs
	enable_led_segments();
     72e:	9f d0       	rcall	.+318    	; 0x86e <enable_led_segments>
	
	// Reset pointers
	wStartPos = 0;
     730:	10 92 db 00 	sts	0x00DB, r1
	bufStartPos = 0;
     734:	10 92 dd 00 	sts	0x00DD, r1
	bufActivePos = 0;
     738:	10 92 ca 00 	sts	0x00CA, r1
	wActivePos = 0;
     73c:	10 92 cb 00 	sts	0x00CB, r1
	#ifdef 	USE_EXTRA_LED_DIGIT
	extra_led_state = 0;
     740:	10 92 da 00 	sts	0x00DA, r1
	#endif
	
	// Clear the buffer 
	fillLedBuffer(0,LED_BUFFER_LENGTH,' ');
     744:	40 e2       	ldi	r20, 0x20	; 32
     746:	6e e0       	ldi	r22, 0x0E	; 14
     748:	80 e0       	ldi	r24, 0x00	; 0
     74a:	b0 df       	rcall	.-160    	; 0x6ac <fillLedBuffer>
	
	// Initialize shift timer - always enabled, but 
	//	processed only when shifting is active
	shifterState = LED_SHIFT_DONE;
     74c:	10 92 dc 00 	sts	0x00DC, r1
	shiftTimer.Enabled = 1;
     750:	ec ec       	ldi	r30, 0xCC	; 204
     752:	f0 e0       	ldi	r31, 0x00	; 0
     754:	80 81       	ld	r24, Z
	shiftTimer.RunOnce = 0;
     756:	81 60       	ori	r24, 0x01	; 1
     758:	8d 7f       	andi	r24, 0xFD	; 253
     75a:	80 83       	st	Z, r24
	shiftTimer.Top = LED_SHIFT_INTERVAL-1;
     75c:	89 e0       	ldi	r24, 0x09	; 9
     75e:	80 93 ce 00 	sts	0x00CE, r24
}
     762:	cf 91       	pop	r28
     764:	08 95       	ret

00000766 <printLedBuffer>:
//		str - null-terminated char string
// Comma and dot (".", ",") get special processing - first occurrence is added to
// a preceding char, next are displayed as a single digit
//---------------------------------------------//
void printLedBuffer(int8_t offset, char* str)
{
     766:	df 92       	push	r13
     768:	ef 92       	push	r14
     76a:	ff 92       	push	r15
     76c:	0f 93       	push	r16
     76e:	1f 93       	push	r17
     770:	cf 93       	push	r28
     772:	df 93       	push	r29
     774:	eb 01       	movw	r28, r22
	char c;
	uint8_t decoded_sym;
	uint8_t state = 0x02;
	uint8_t comma_pos;
	// Ensure index is inside the buffer
	uint8_t buffer_position = wrap_led_buffer_index((int8_t)bufStartPos + offset);
     776:	90 91 dd 00 	lds	r25, 0x00DD
     77a:	89 0f       	add	r24, r25
     77c:	12 df       	rcall	.-476    	; 0x5a2 <wrap_led_buffer_index>
     77e:	18 2f       	mov	r17, r24
	comma_pos = buffer_position;
     780:	d8 2e       	mov	r13, r24
//---------------------------------------------//
void printLedBuffer(int8_t offset, char* str)
{
	char c;
	uint8_t decoded_sym;
	uint8_t state = 0x02;
     782:	02 e0       	ldi	r16, 0x02	; 2
		comma_pos = buffer_position;
		if (state != 0x01)
		{
			buffer_position = inc_buffer_position(buffer_position);
		}
		state = (state & 0x01) ? 0x03 : 0x00;		
     784:	f1 2c       	mov	r15, r1
     786:	0f 2e       	mov	r0, r31
     788:	f3 e0       	ldi	r31, 0x03	; 3
     78a:	ef 2e       	mov	r14, r31
     78c:	f0 2d       	mov	r31, r0
	uint8_t comma_pos;
	// Ensure index is inside the buffer
	uint8_t buffer_position = wrap_led_buffer_index((int8_t)bufStartPos + offset);
	comma_pos = buffer_position;
	// Output chars
	while((c = *str++))
     78e:	26 c0       	rjmp	.+76     	; 0x7dc <printLedBuffer+0x76>
	{
		decoded_sym = decode_led_char(c);
     790:	d2 de       	rcall	.-604    	; 0x536 <decode_led_char>
		state = (decoded_sym == SEGH) ? (state | 0x01) : (state & ~0x01);
     792:	80 38       	cpi	r24, 0x80	; 128
     794:	19 f4       	brne	.+6      	; 0x79c <printLedBuffer+0x36>
     796:	90 2f       	mov	r25, r16
     798:	91 60       	ori	r25, 0x01	; 1
     79a:	02 c0       	rjmp	.+4      	; 0x7a0 <printLedBuffer+0x3a>
     79c:	90 2f       	mov	r25, r16
     79e:	9e 7f       	andi	r25, 0xFE	; 254
		if (state == 0x01)			
     7a0:	91 30       	cpi	r25, 0x01	; 1
     7a2:	51 f4       	brne	.+20     	; 0x7b8 <printLedBuffer+0x52>
		{
			led_data_buffer[comma_pos] |= decoded_sym;
     7a4:	ed 2d       	mov	r30, r13
     7a6:	f0 e0       	ldi	r31, 0x00	; 0
     7a8:	e2 52       	subi	r30, 0x22	; 34
     7aa:	ff 4f       	sbci	r31, 0xFF	; 255
     7ac:	90 81       	ld	r25, Z
     7ae:	89 2b       	or	r24, r25
     7b0:	80 83       	st	Z, r24
     7b2:	81 2f       	mov	r24, r17
		comma_pos = buffer_position;
		if (state != 0x01)
		{
			buffer_position = inc_buffer_position(buffer_position);
		}
		state = (state & 0x01) ? 0x03 : 0x00;		
     7b4:	0e 2d       	mov	r16, r14
     7b6:	10 c0       	rjmp	.+32     	; 0x7d8 <printLedBuffer+0x72>
		{
			led_data_buffer[comma_pos] |= decoded_sym;
		}
		else
		{
			led_data_buffer[buffer_position] = decoded_sym;	
     7b8:	e1 2f       	mov	r30, r17
     7ba:	f0 e0       	ldi	r31, 0x00	; 0
     7bc:	e2 52       	subi	r30, 0x22	; 34
     7be:	ff 4f       	sbci	r31, 0xFF	; 255
     7c0:	80 83       	st	Z, r24
// Increments index. If index falls out of buffer range,
// index is wrapped
//---------------------------------------------//
static inline uint8_t inc_buffer_position(uint8_t position)
{
	return (position >= LED_BUFFER_LENGTH - 1) ? 0 : position + 1;
     7c2:	1d 30       	cpi	r17, 0x0D	; 13
     7c4:	18 f4       	brcc	.+6      	; 0x7cc <printLedBuffer+0x66>
     7c6:	81 2f       	mov	r24, r17
     7c8:	8f 5f       	subi	r24, 0xFF	; 255
     7ca:	01 c0       	rjmp	.+2      	; 0x7ce <printLedBuffer+0x68>
     7cc:	8f 2d       	mov	r24, r15
		comma_pos = buffer_position;
		if (state != 0x01)
		{
			buffer_position = inc_buffer_position(buffer_position);
		}
		state = (state & 0x01) ? 0x03 : 0x00;		
     7ce:	90 ff       	sbrs	r25, 0
     7d0:	02 c0       	rjmp	.+4      	; 0x7d6 <printLedBuffer+0x70>
     7d2:	0e 2d       	mov	r16, r14
     7d4:	01 c0       	rjmp	.+2      	; 0x7d8 <printLedBuffer+0x72>
     7d6:	0f 2d       	mov	r16, r15
     7d8:	d1 2e       	mov	r13, r17
     7da:	18 2f       	mov	r17, r24
	uint8_t comma_pos;
	// Ensure index is inside the buffer
	uint8_t buffer_position = wrap_led_buffer_index((int8_t)bufStartPos + offset);
	comma_pos = buffer_position;
	// Output chars
	while((c = *str++))
     7dc:	89 91       	ld	r24, Y+
     7de:	81 11       	cpse	r24, r1
     7e0:	d7 cf       	rjmp	.-82     	; 0x790 <printLedBuffer+0x2a>
		{
			buffer_position = inc_buffer_position(buffer_position);
		}
		state = (state & 0x01) ? 0x03 : 0x00;		
	}
}
     7e2:	df 91       	pop	r29
     7e4:	cf 91       	pop	r28
     7e6:	1f 91       	pop	r17
     7e8:	0f 91       	pop	r16
     7ea:	ff 90       	pop	r15
     7ec:	ef 90       	pop	r14
     7ee:	df 90       	pop	r13
     7f0:	08 95       	ret

000007f2 <setComma>:
//	buffer cell
//---------------------------------------------//
void setComma(int8_t offset)
{
	// Ensure index is inside the buffer
	uint8_t position = wrap_led_buffer_index((int8_t)bufStartPos + offset);
     7f2:	90 91 dd 00 	lds	r25, 0x00DD
     7f6:	89 0f       	add	r24, r25
     7f8:	d4 de       	rcall	.-600    	; 0x5a2 <wrap_led_buffer_index>
	led_data_buffer[position] |= (SEGH);
     7fa:	e8 2f       	mov	r30, r24
     7fc:	f0 e0       	ldi	r31, 0x00	; 0
     7fe:	e2 52       	subi	r30, 0x22	; 34
     800:	ff 4f       	sbci	r31, 0xFF	; 255
     802:	80 81       	ld	r24, Z
     804:	80 68       	ori	r24, 0x80	; 128
     806:	80 83       	st	Z, r24
     808:	08 95       	ret

0000080a <setExtraLeds>:
// Argument is ORed with current LED state
//---------------------------------------------//
inline void setExtraLeds(uint8_t leds_set_value)
{
		//asm("cli");
		extra_led_state |= leds_set_value;
     80a:	90 91 da 00 	lds	r25, 0x00DA
     80e:	89 2b       	or	r24, r25
     810:	80 93 da 00 	sts	0x00DA, r24
     814:	08 95       	ret

00000816 <clearExtraLeds>:
// Argument is AND NOTed with current LED state
//---------------------------------------------//
inline void clearExtraLeds(uint8_t leds_clear_value)
{
		//asm("cli");
		extra_led_state &= ~leds_clear_value;
     816:	90 91 da 00 	lds	r25, 0x00DA
     81a:	80 95       	com	r24
     81c:	98 23       	and	r25, r24
     81e:	90 93 da 00 	sts	0x00DA, r25
     822:	08 95       	ret

00000824 <led_clock_pulse>:


// Clocks in bit into the shift register
void led_clock_pulse(uint8_t bit)
{
	if (bit)
     824:	88 23       	and	r24, r24
     826:	11 f0       	breq	.+4      	; 0x82c <led_clock_pulse+0x8>
		PORTB |= (1<<PB_LED_DOUT);
     828:	c0 9a       	sbi	0x18, 0	; 24
     82a:	01 c0       	rjmp	.+2      	; 0x82e <led_clock_pulse+0xa>
	else
		PORTB &= ~(1<<PB_LED_DOUT);
     82c:	c0 98       	cbi	0x18, 0	; 24
     82e:	8a e1       	ldi	r24, 0x1A	; 26
     830:	8a 95       	dec	r24
     832:	f1 f7       	brne	.-4      	; 0x830 <led_clock_pulse+0xc>
     834:	00 c0       	rjmp	.+0      	; 0x836 <led_clock_pulse+0x12>
	_delay_us(SETUP_DELAY_US);
	PORTB |= (1<<PB_LED_CLK);
     836:	c2 9a       	sbi	0x18, 2	; 24
     838:	8a e1       	ldi	r24, 0x1A	; 26
     83a:	8a 95       	dec	r24
     83c:	f1 f7       	brne	.-4      	; 0x83a <led_clock_pulse+0x16>
     83e:	00 c0       	rjmp	.+0      	; 0x840 <led_clock_pulse+0x1c>
	_delay_us(SHIFT_DELAY_US);
	PORTB &= ~(1<<PB_LED_CLK);
     840:	c2 98       	cbi	0x18, 2	; 24
     842:	08 95       	ret

00000844 <set_led_segments>:
// Outputs decoded segment data to port bits
void set_led_segments(uint8_t seg_ch)
{
	uint8_t pdat;
	seg_ch ^= LED_SEGMENT_MASK;
	pdat = PORTC & ~( (1<<PC_SEGA) | (1<<PC_SEGB) | (1<<PC_SEGC) | (1<<PC_SEGD) | (1<<PC_SEGE) );
     844:	95 b3       	in	r25, 0x15	; 21
	pdat |= (seg_ch & ( (1<<PC_SEGA) | (1<<PC_SEGB) | (1<<PC_SEGC) | (1<<PC_SEGD) | (1<<PC_SEGE) ));
     846:	28 2f       	mov	r18, r24
     848:	2f 71       	andi	r18, 0x1F	; 31
// Outputs decoded segment data to port bits
void set_led_segments(uint8_t seg_ch)
{
	uint8_t pdat;
	seg_ch ^= LED_SEGMENT_MASK;
	pdat = PORTC & ~( (1<<PC_SEGA) | (1<<PC_SEGB) | (1<<PC_SEGC) | (1<<PC_SEGD) | (1<<PC_SEGE) );
     84a:	90 7e       	andi	r25, 0xE0	; 224
	pdat |= (seg_ch & ( (1<<PC_SEGA) | (1<<PC_SEGB) | (1<<PC_SEGC) | (1<<PC_SEGD) | (1<<PC_SEGE) ));
     84c:	92 2b       	or	r25, r18
	PORTC = pdat;
     84e:	95 bb       	out	0x15, r25	; 21
	seg_ch >>= 2;
	pdat = PORTB & ~( (1<<PB_SEGF) | (1<<PB_SEGG) | (1<<PB_SEGH) );
     850:	98 b3       	in	r25, 0x18	; 24
	uint8_t pdat;
	seg_ch ^= LED_SEGMENT_MASK;
	pdat = PORTC & ~( (1<<PC_SEGA) | (1<<PC_SEGB) | (1<<PC_SEGC) | (1<<PC_SEGD) | (1<<PC_SEGE) );
	pdat |= (seg_ch & ( (1<<PC_SEGA) | (1<<PC_SEGB) | (1<<PC_SEGC) | (1<<PC_SEGD) | (1<<PC_SEGE) ));
	PORTC = pdat;
	seg_ch >>= 2;
     852:	86 95       	lsr	r24
     854:	86 95       	lsr	r24
	pdat = PORTB & ~( (1<<PB_SEGF) | (1<<PB_SEGG) | (1<<PB_SEGH) );
	pdat |= (seg_ch & ( (1<<PB_SEGF) | (1<<PB_SEGG) | (1<<PB_SEGH) ));
     856:	88 73       	andi	r24, 0x38	; 56
	seg_ch ^= LED_SEGMENT_MASK;
	pdat = PORTC & ~( (1<<PC_SEGA) | (1<<PC_SEGB) | (1<<PC_SEGC) | (1<<PC_SEGD) | (1<<PC_SEGE) );
	pdat |= (seg_ch & ( (1<<PC_SEGA) | (1<<PC_SEGB) | (1<<PC_SEGC) | (1<<PC_SEGD) | (1<<PC_SEGE) ));
	PORTC = pdat;
	seg_ch >>= 2;
	pdat = PORTB & ~( (1<<PB_SEGF) | (1<<PB_SEGG) | (1<<PB_SEGH) );
     858:	97 7c       	andi	r25, 0xC7	; 199
	pdat |= (seg_ch & ( (1<<PB_SEGF) | (1<<PB_SEGG) | (1<<PB_SEGH) ));
     85a:	89 2b       	or	r24, r25
	PORTB = pdat;
     85c:	88 bb       	out	0x18, r24	; 24
     85e:	08 95       	ret

00000860 <enable_led_segments_pullups>:

// Turns segment port bits to HI-Z and
// enables pull-ups
void enable_led_segments_pullups()
{
	PORTC |= ( (1<<PC_SEGA) | (1<<PC_SEGB) | (1<<PC_SEGC) | (1<<PC_SEGD) | (1<<PC_SEGE) );
     860:	85 b3       	in	r24, 0x15	; 21
     862:	8f 61       	ori	r24, 0x1F	; 31
     864:	85 bb       	out	0x15, r24	; 21
	PORTB |= ( (1<<PB_SEGF) | (1<<PB_SEGG) | (1<<PB_SEGH) );
     866:	88 b3       	in	r24, 0x18	; 24
     868:	88 63       	ori	r24, 0x38	; 56
     86a:	88 bb       	out	0x18, r24	; 24
     86c:	08 95       	ret

0000086e <enable_led_segments>:
}	

void enable_led_segments()
{
	DDRC |= ( (1<<PC_SEGA) | (1<<PC_SEGB) | (1<<PC_SEGC) | (1<<PC_SEGD) | (1<<PC_SEGE) );
     86e:	84 b3       	in	r24, 0x14	; 20
     870:	8f 61       	ori	r24, 0x1F	; 31
     872:	84 bb       	out	0x14, r24	; 20
	DDRB |= ( (1<<PB_SEGF) | (1<<PB_SEGG) | (1<<PB_SEGH) );
     874:	87 b3       	in	r24, 0x17	; 23
     876:	88 63       	ori	r24, 0x38	; 56
     878:	87 bb       	out	0x17, r24	; 23
     87a:	08 95       	ret

0000087c <disable_led_segments>:
}

void disable_led_segments()
{
	DDRC &= ~( (1<<PC_SEGA) | (1<<PC_SEGB) | (1<<PC_SEGC) | (1<<PC_SEGD) | (1<<PC_SEGE) );
     87c:	84 b3       	in	r24, 0x14	; 20
     87e:	80 7e       	andi	r24, 0xE0	; 224
     880:	84 bb       	out	0x14, r24	; 20
	DDRB &= ~( (1<<PB_SEGF) | (1<<PB_SEGG) | (1<<PB_SEGH) );
     882:	87 b3       	in	r24, 0x17	; 23
     884:	87 7c       	andi	r24, 0xC7	; 199
     886:	87 bb       	out	0x17, r24	; 23
     888:	08 95       	ret

0000088a <capture_button_state>:


void capture_button_state()
{
	uint8_t pdat;
	pdat = PINB  & ( (1<<PB_SEGF) | (1<<PB_SEGG) | (1<<PB_SEGH) );
     88a:	86 b3       	in	r24, 0x16	; 22
     88c:	88 73       	andi	r24, 0x38	; 56
	pdat <<= 2;
	pdat |= (PINC & ( (1<<PC_SEGA) | (1<<PC_SEGB) | (1<<PC_SEGC) | (1<<PC_SEGD) | (1<<PC_SEGE) ));
     88e:	93 b3       	in	r25, 0x13	; 19

void capture_button_state()
{
	uint8_t pdat;
	pdat = PINB  & ( (1<<PB_SEGF) | (1<<PB_SEGG) | (1<<PB_SEGH) );
	pdat <<= 2;
     890:	88 0f       	add	r24, r24
     892:	88 0f       	add	r24, r24
	pdat |= (PINC & ( (1<<PC_SEGA) | (1<<PC_SEGB) | (1<<PC_SEGC) | (1<<PC_SEGD) | (1<<PC_SEGE) ));
     894:	9f 71       	andi	r25, 0x1F	; 31
     896:	89 2b       	or	r24, r25
	raw_button_state = pdat ^ RAW_BUTTONS_INVERSE_MASK;
     898:	80 95       	com	r24
     89a:	80 93 ec 00 	sts	0x00EC, r24
     89e:	08 95       	ret

000008a0 <restartMenuTimer>:
//	 Restarts menu state timeout
//	Should be used in RUN function when control buttons are pressed.
//-----------------------------------------------------------------//
static void restartMenuTimer(void)
{
	menuTimer.Timer = 0;
     8a0:	10 92 ef 00 	sts	0x00EF, r1
     8a4:	08 95       	ret

000008a6 <mf_setTempLeave>:
		clearExtraLeds(LED_TEMP);
}

void mf_setTempLeave(void)
{
	userTimer.Enabled = 0;
     8a6:	e2 ef       	ldi	r30, 0xF2	; 242
     8a8:	f0 e0       	ldi	r31, 0x00	; 0
     8aa:	80 81       	ld	r24, Z
     8ac:	8e 7f       	andi	r24, 0xFE	; 254
     8ae:	80 83       	st	Z, r24
     8b0:	08 95       	ret

000008b2 <mf_leafSelectAct>:
	userTimer.FA_GE = 1;	
}

void mf_leafSelectAct(void)
{
	userTimer.Timer = 0;
     8b2:	10 92 f3 00 	sts	0x00F3, r1
	userTimer.Top = BLINK_PERIOD - 1;
     8b6:	87 e0       	ldi	r24, 0x07	; 7
     8b8:	80 93 f4 00 	sts	0x00F4, r24
	userTimer.CompA = BLINK_PERIOD / 2;
     8bc:	84 e0       	ldi	r24, 0x04	; 4
     8be:	80 93 f5 00 	sts	0x00F5, r24
	userTimer.Enabled = 1;
     8c2:	e2 ef       	ldi	r30, 0xF2	; 242
     8c4:	f0 e0       	ldi	r31, 0x00	; 0
     8c6:	80 81       	ld	r24, Z
     8c8:	81 60       	ori	r24, 0x01	; 1
     8ca:	80 83       	st	Z, r24
     8cc:	08 95       	ret

000008ce <mf_leafExit>:
}

void mf_leafExit(void)
{
	userTimer.Enabled = 0;	
     8ce:	e2 ef       	ldi	r30, 0xF2	; 242
     8d0:	f0 e0       	ldi	r31, 0x00	; 0
     8d2:	80 81       	ld	r24, Z
     8d4:	8e 7f       	andi	r24, 0xFE	; 254
     8d6:	80 83       	st	Z, r24
     8d8:	08 95       	ret

000008da <mf_cdone1Select>:
}

//---------------------------------------------//

void mf_cdone1Select(void)
{
     8da:	08 95       	ret

000008dc <mf_cdone2Select>:
	// Calculate new coefficient for temperature conversion
}

void mf_cdone2Select(void)
{
     8dc:	08 95       	ret

000008de <mf_cdoneDo>:
	// Calculate new coefficient for temperature conversion
}

void mf_cdoneDo(void)
{
	printLedBuffer(0," DONE ");
     8de:	6e e9       	ldi	r22, 0x9E	; 158
     8e0:	70 e0       	ldi	r23, 0x00	; 0
     8e2:	80 e0       	ldi	r24, 0x00	; 0
     8e4:	40 df       	rcall	.-384    	; 0x766 <printLedBuffer>
     8e6:	08 95       	ret

000008e8 <mf_calib2Do>:
}

//---------------------------------------------//

void mf_calib2Do(void)
{
     8e8:	cf 93       	push	r28
     8ea:	df 93       	push	r29
     8ec:	cd b7       	in	r28, 0x3d	; 61
     8ee:	de b7       	in	r29, 0x3e	; 62
     8f0:	27 97       	sbiw	r28, 0x07	; 7
     8f2:	0f b6       	in	r0, 0x3f	; 63
     8f4:	f8 94       	cli
     8f6:	de bf       	out	0x3e, r29	; 62
     8f8:	0f be       	out	0x3f, r0	; 63
     8fa:	cd bf       	out	0x3d, r28	; 61
	char str[] = {'P','2',' ',' ',' ',' ',0};
     8fc:	87 e0       	ldi	r24, 0x07	; 7
     8fe:	e4 e7       	ldi	r30, 0x74	; 116
     900:	f0 e0       	ldi	r31, 0x00	; 0
     902:	de 01       	movw	r26, r28
     904:	11 96       	adiw	r26, 0x01	; 1
     906:	01 90       	ld	r0, Z+
     908:	0d 92       	st	X+, r0
     90a:	8a 95       	dec	r24
     90c:	e1 f7       	brne	.-8      	; 0x906 <mf_calib2Do+0x1e>
	
	
	if (button_state & (BD_UP | BR_UP))
     90e:	80 91 c4 00 	lds	r24, 0x00C4
     912:	90 91 c5 00 	lds	r25, 0x00C5
     916:	9c 01       	movw	r18, r24
     918:	22 70       	andi	r18, 0x02	; 2
     91a:	34 70       	andi	r19, 0x04	; 4
     91c:	23 2b       	or	r18, r19
     91e:	41 f0       	breq	.+16     	; 0x930 <mf_calib2Do+0x48>
	{
		if (cpoint2 < MAX_CALIB_TEMP)
     920:	80 91 62 00 	lds	r24, 0x0062
     924:	8a 3f       	cpi	r24, 0xFA	; 250
     926:	78 f4       	brcc	.+30     	; 0x946 <mf_calib2Do+0x5e>
		cpoint2 += 1;
     928:	8f 5f       	subi	r24, 0xFF	; 255
     92a:	80 93 62 00 	sts	0x0062, r24
     92e:	0b c0       	rjmp	.+22     	; 0x946 <mf_calib2Do+0x5e>
	}
	else if (button_state & (BD_DOWN | BR_DOWN))
     930:	84 70       	andi	r24, 0x04	; 4
     932:	98 70       	andi	r25, 0x08	; 8
     934:	89 2b       	or	r24, r25
     936:	39 f0       	breq	.+14     	; 0x946 <mf_calib2Do+0x5e>
	{
		if (cpoint2 > MIN_CALIB_TEMP)
     938:	80 91 62 00 	lds	r24, 0x0062
     93c:	8b 30       	cpi	r24, 0x0B	; 11
     93e:	18 f0       	brcs	.+6      	; 0x946 <mf_calib2Do+0x5e>
		cpoint2 -= 1;
     940:	81 50       	subi	r24, 0x01	; 1
     942:	80 93 62 00 	sts	0x0062, r24
	}
	
	if (userTimer.FA_GE)
     946:	80 91 f2 00 	lds	r24, 0x00F2
     94a:	84 ff       	sbrs	r24, 4
     94c:	09 c0       	rjmp	.+18     	; 0x960 <mf_calib2Do+0x78>
	{
		u16toa_align_right(cpoint2,str + 3,0x80 | 3,' ');
     94e:	20 e2       	ldi	r18, 0x20	; 32
     950:	43 e8       	ldi	r20, 0x83	; 131
     952:	be 01       	movw	r22, r28
     954:	6c 5f       	subi	r22, 0xFC	; 252
     956:	7f 4f       	sbci	r23, 0xFF	; 255
     958:	80 91 62 00 	lds	r24, 0x0062
     95c:	90 e0       	ldi	r25, 0x00	; 0
     95e:	1d d3       	rcall	.+1594   	; 0xf9a <u16toa_align_right>
	}
	
	printLedBuffer(0,str);
     960:	be 01       	movw	r22, r28
     962:	6f 5f       	subi	r22, 0xFF	; 255
     964:	7f 4f       	sbci	r23, 0xFF	; 255
     966:	80 e0       	ldi	r24, 0x00	; 0
     968:	fe de       	rcall	.-516    	; 0x766 <printLedBuffer>
	
}
     96a:	27 96       	adiw	r28, 0x07	; 7
     96c:	0f b6       	in	r0, 0x3f	; 63
     96e:	f8 94       	cli
     970:	de bf       	out	0x3e, r29	; 62
     972:	0f be       	out	0x3f, r0	; 63
     974:	cd bf       	out	0x3d, r28	; 61
     976:	df 91       	pop	r29
     978:	cf 91       	pop	r28
     97a:	08 95       	ret

0000097c <mf_calib1Do>:
	// restore cpoint1, cpoint2
	mf_leafSelect();
}

void mf_calib1Do(void)
{
     97c:	cf 93       	push	r28
     97e:	df 93       	push	r29
     980:	cd b7       	in	r28, 0x3d	; 61
     982:	de b7       	in	r29, 0x3e	; 62
     984:	27 97       	sbiw	r28, 0x07	; 7
     986:	0f b6       	in	r0, 0x3f	; 63
     988:	f8 94       	cli
     98a:	de bf       	out	0x3e, r29	; 62
     98c:	0f be       	out	0x3f, r0	; 63
     98e:	cd bf       	out	0x3d, r28	; 61
	char str[] = {'P','1',' ',' ',' ',' ',0};
     990:	87 e0       	ldi	r24, 0x07	; 7
     992:	eb e7       	ldi	r30, 0x7B	; 123
     994:	f0 e0       	ldi	r31, 0x00	; 0
     996:	de 01       	movw	r26, r28
     998:	11 96       	adiw	r26, 0x01	; 1
     99a:	01 90       	ld	r0, Z+
     99c:	0d 92       	st	X+, r0
     99e:	8a 95       	dec	r24
     9a0:	e1 f7       	brne	.-8      	; 0x99a <mf_calib1Do+0x1e>
	
	
	if (button_state & (BD_UP | BR_UP))
     9a2:	80 91 c4 00 	lds	r24, 0x00C4
     9a6:	90 91 c5 00 	lds	r25, 0x00C5
     9aa:	9c 01       	movw	r18, r24
     9ac:	22 70       	andi	r18, 0x02	; 2
     9ae:	34 70       	andi	r19, 0x04	; 4
     9b0:	23 2b       	or	r18, r19
     9b2:	41 f0       	breq	.+16     	; 0x9c4 <mf_calib1Do+0x48>
	{
		if (cpoint1 < MAX_CALIB_TEMP)
     9b4:	80 91 63 00 	lds	r24, 0x0063
     9b8:	8a 3f       	cpi	r24, 0xFA	; 250
     9ba:	78 f4       	brcc	.+30     	; 0x9da <mf_calib1Do+0x5e>
			cpoint1 += 1;
     9bc:	8f 5f       	subi	r24, 0xFF	; 255
     9be:	80 93 63 00 	sts	0x0063, r24
     9c2:	0b c0       	rjmp	.+22     	; 0x9da <mf_calib1Do+0x5e>
	}
	else if (button_state & (BD_DOWN | BR_DOWN))
     9c4:	84 70       	andi	r24, 0x04	; 4
     9c6:	98 70       	andi	r25, 0x08	; 8
     9c8:	89 2b       	or	r24, r25
     9ca:	39 f0       	breq	.+14     	; 0x9da <mf_calib1Do+0x5e>
	{
		if (cpoint1 > MIN_CALIB_TEMP)
     9cc:	80 91 63 00 	lds	r24, 0x0063
     9d0:	8b 30       	cpi	r24, 0x0B	; 11
     9d2:	18 f0       	brcs	.+6      	; 0x9da <mf_calib1Do+0x5e>
			cpoint1 -= 1;
     9d4:	81 50       	subi	r24, 0x01	; 1
     9d6:	80 93 63 00 	sts	0x0063, r24
	}
	
	if (userTimer.FA_GE)
     9da:	80 91 f2 00 	lds	r24, 0x00F2
     9de:	84 ff       	sbrs	r24, 4
     9e0:	09 c0       	rjmp	.+18     	; 0x9f4 <mf_calib1Do+0x78>
	{
		u16toa_align_right(cpoint1,str + 3,0x80 | 3,' ');
     9e2:	20 e2       	ldi	r18, 0x20	; 32
     9e4:	43 e8       	ldi	r20, 0x83	; 131
     9e6:	be 01       	movw	r22, r28
     9e8:	6c 5f       	subi	r22, 0xFC	; 252
     9ea:	7f 4f       	sbci	r23, 0xFF	; 255
     9ec:	80 91 63 00 	lds	r24, 0x0063
     9f0:	90 e0       	ldi	r25, 0x00	; 0
     9f2:	d3 d2       	rcall	.+1446   	; 0xf9a <u16toa_align_right>
	}
	
	printLedBuffer(0,str);
     9f4:	be 01       	movw	r22, r28
     9f6:	6f 5f       	subi	r22, 0xFF	; 255
     9f8:	7f 4f       	sbci	r23, 0xFF	; 255
     9fa:	80 e0       	ldi	r24, 0x00	; 0
     9fc:	b4 de       	rcall	.-664    	; 0x766 <printLedBuffer>
}
     9fe:	27 96       	adiw	r28, 0x07	; 7
     a00:	0f b6       	in	r0, 0x3f	; 63
     a02:	f8 94       	cli
     a04:	de bf       	out	0x3e, r29	; 62
     a06:	0f be       	out	0x3f, r0	; 63
     a08:	cd bf       	out	0x3d, r28	; 61
     a0a:	df 91       	pop	r29
     a0c:	cf 91       	pop	r28
     a0e:	08 95       	ret

00000a10 <mf_autopoffDo>:

//---------------------------------------------//


void mf_autopoffDo(void)
{
     a10:	cf 93       	push	r28
     a12:	df 93       	push	r29
     a14:	cd b7       	in	r28, 0x3d	; 61
     a16:	de b7       	in	r29, 0x3e	; 62
     a18:	27 97       	sbiw	r28, 0x07	; 7
     a1a:	0f b6       	in	r0, 0x3f	; 63
     a1c:	f8 94       	cli
     a1e:	de bf       	out	0x3e, r29	; 62
     a20:	0f be       	out	0x3f, r0	; 63
     a22:	cd bf       	out	0x3d, r28	; 61
	char str[] = {'O','F','F',' ',' ',' ',0};
     a24:	87 e0       	ldi	r24, 0x07	; 7
     a26:	e2 e8       	ldi	r30, 0x82	; 130
     a28:	f0 e0       	ldi	r31, 0x00	; 0
     a2a:	de 01       	movw	r26, r28
     a2c:	11 96       	adiw	r26, 0x01	; 1
     a2e:	01 90       	ld	r0, Z+
     a30:	0d 92       	st	X+, r0
     a32:	8a 95       	dec	r24
     a34:	e1 f7       	brne	.-8      	; 0xa2e <mf_autopoffDo+0x1e>
		
		
	if (button_state & (BD_UP | BR_UP))
     a36:	80 91 c4 00 	lds	r24, 0x00C4
     a3a:	90 91 c5 00 	lds	r25, 0x00C5
     a3e:	9c 01       	movw	r18, r24
     a40:	22 70       	andi	r18, 0x02	; 2
     a42:	34 70       	andi	r19, 0x04	; 4
     a44:	23 2b       	or	r18, r19
     a46:	49 f0       	breq	.+18     	; 0xa5a <mf_autopoffDo+0x4a>
	{
		if (power_off_timeout < MAX_POWEROFF_TIMEOUT)
     a48:	80 91 64 00 	lds	r24, 0x0064
     a4c:	8f 35       	cpi	r24, 0x5F	; 95
     a4e:	18 f4       	brcc	.+6      	; 0xa56 <mf_autopoffDo+0x46>
			power_off_timeout += 5;
     a50:	8b 5f       	subi	r24, 0xFB	; 251
     a52:	80 93 64 00 	sts	0x0064, r24
		restartMenuTimer();
     a56:	24 df       	rcall	.-440    	; 0x8a0 <restartMenuTimer>
     a58:	0c c0       	rjmp	.+24     	; 0xa72 <mf_autopoffDo+0x62>
	}
	else if (button_state & (BD_DOWN | BR_DOWN))
     a5a:	84 70       	andi	r24, 0x04	; 4
     a5c:	98 70       	andi	r25, 0x08	; 8
     a5e:	89 2b       	or	r24, r25
     a60:	41 f0       	breq	.+16     	; 0xa72 <mf_autopoffDo+0x62>
	{
		if (power_off_timeout > MIN_POWEROFF_TIMEOUT)
     a62:	80 91 64 00 	lds	r24, 0x0064
     a66:	86 30       	cpi	r24, 0x06	; 6
     a68:	18 f0       	brcs	.+6      	; 0xa70 <mf_autopoffDo+0x60>
			power_off_timeout -= 5;
     a6a:	85 50       	subi	r24, 0x05	; 5
     a6c:	80 93 64 00 	sts	0x0064, r24
		restartMenuTimer();
     a70:	17 df       	rcall	.-466    	; 0x8a0 <restartMenuTimer>
	}	
		
	if (userTimer.FA_GE)
     a72:	80 91 f2 00 	lds	r24, 0x00F2
     a76:	84 ff       	sbrs	r24, 4
     a78:	10 c0       	rjmp	.+32     	; 0xa9a <mf_autopoffDo+0x8a>
	{
		if (power_off_timeout != MAX_POWEROFF_TIMEOUT)
     a7a:	80 91 64 00 	lds	r24, 0x0064
     a7e:	8f 35       	cpi	r24, 0x5F	; 95
     a80:	41 f0       	breq	.+16     	; 0xa92 <mf_autopoffDo+0x82>
			u16toa_align_right(power_off_timeout,str + 4,0x80 | 2,' ');	
     a82:	20 e2       	ldi	r18, 0x20	; 32
     a84:	42 e8       	ldi	r20, 0x82	; 130
     a86:	be 01       	movw	r22, r28
     a88:	6b 5f       	subi	r22, 0xFB	; 251
     a8a:	7f 4f       	sbci	r23, 0xFF	; 255
     a8c:	90 e0       	ldi	r25, 0x00	; 0
     a8e:	85 d2       	rcall	.+1290   	; 0xf9a <u16toa_align_right>
     a90:	04 c0       	rjmp	.+8      	; 0xa9a <mf_autopoffDo+0x8a>
		else 
		{
			str[4] = 'N';
     a92:	8e e4       	ldi	r24, 0x4E	; 78
     a94:	8d 83       	std	Y+5, r24	; 0x05
			str[5] = 'O';
     a96:	8f e4       	ldi	r24, 0x4F	; 79
     a98:	8e 83       	std	Y+6, r24	; 0x06
		}			
	}		
		
	printLedBuffer(0,str);
     a9a:	be 01       	movw	r22, r28
     a9c:	6f 5f       	subi	r22, 0xFF	; 255
     a9e:	7f 4f       	sbci	r23, 0xFF	; 255
     aa0:	80 e0       	ldi	r24, 0x00	; 0
     aa2:	61 de       	rcall	.-830    	; 0x766 <printLedBuffer>
}
     aa4:	27 96       	adiw	r28, 0x07	; 7
     aa6:	0f b6       	in	r0, 0x3f	; 63
     aa8:	f8 94       	cli
     aaa:	de bf       	out	0x3e, r29	; 62
     aac:	0f be       	out	0x3f, r0	; 63
     aae:	cd bf       	out	0x3d, r28	; 61
     ab0:	df 91       	pop	r29
     ab2:	cf 91       	pop	r28
     ab4:	08 95       	ret

00000ab6 <mf_sndenDo>:

//---------------------------------------------//


void mf_sndenDo(void)
{
     ab6:	cf 93       	push	r28
     ab8:	df 93       	push	r29
     aba:	cd b7       	in	r28, 0x3d	; 61
     abc:	de b7       	in	r29, 0x3e	; 62
     abe:	27 97       	sbiw	r28, 0x07	; 7
     ac0:	0f b6       	in	r0, 0x3f	; 63
     ac2:	f8 94       	cli
     ac4:	de bf       	out	0x3e, r29	; 62
     ac6:	0f be       	out	0x3f, r0	; 63
     ac8:	cd bf       	out	0x3d, r28	; 61
	char str[] = {'S','N','D',' ',' ',' ',0};
     aca:	87 e0       	ldi	r24, 0x07	; 7
     acc:	e9 e8       	ldi	r30, 0x89	; 137
     ace:	f0 e0       	ldi	r31, 0x00	; 0
     ad0:	de 01       	movw	r26, r28
     ad2:	11 96       	adiw	r26, 0x01	; 1
     ad4:	01 90       	ld	r0, Z+
     ad6:	0d 92       	st	X+, r0
     ad8:	8a 95       	dec	r24
     ada:	e1 f7       	brne	.-8      	; 0xad4 <mf_sndenDo+0x1e>
		
	if (button_state & (BD_UP | BD_DOWN))
     adc:	80 91 c4 00 	lds	r24, 0x00C4
     ae0:	90 91 c5 00 	lds	r25, 0x00C5
     ae4:	86 70       	andi	r24, 0x06	; 6
     ae6:	99 27       	eor	r25, r25
     ae8:	89 2b       	or	r24, r25
     aea:	41 f0       	breq	.+16     	; 0xafc <mf_sndenDo+0x46>
	{
		sound_enable = !sound_enable;
     aec:	81 e0       	ldi	r24, 0x01	; 1
     aee:	90 91 65 00 	lds	r25, 0x0065
     af2:	91 11       	cpse	r25, r1
     af4:	80 e0       	ldi	r24, 0x00	; 0
     af6:	80 93 65 00 	sts	0x0065, r24
		restartMenuTimer();
     afa:	d2 de       	rcall	.-604    	; 0x8a0 <restartMenuTimer>
	}			
		
	if (userTimer.FA_GE)
     afc:	80 91 f2 00 	lds	r24, 0x00F2
     b00:	84 ff       	sbrs	r24, 4
     b02:	0e c0       	rjmp	.+28     	; 0xb20 <mf_sndenDo+0x6a>
	{
		if (sound_enable)		
     b04:	80 91 65 00 	lds	r24, 0x0065
     b08:	88 23       	and	r24, r24
     b0a:	29 f0       	breq	.+10     	; 0xb16 <mf_sndenDo+0x60>
		{
			str[4] = 'O';
     b0c:	8f e4       	ldi	r24, 0x4F	; 79
     b0e:	8d 83       	std	Y+5, r24	; 0x05
			str[5] = 'N';
     b10:	8e e4       	ldi	r24, 0x4E	; 78
     b12:	8e 83       	std	Y+6, r24	; 0x06
     b14:	05 c0       	rjmp	.+10     	; 0xb20 <mf_sndenDo+0x6a>
		}
		else
		{
			str[3] = 'O';
     b16:	8f e4       	ldi	r24, 0x4F	; 79
     b18:	8c 83       	std	Y+4, r24	; 0x04
			str[4] = 'F';
     b1a:	86 e4       	ldi	r24, 0x46	; 70
     b1c:	8d 83       	std	Y+5, r24	; 0x05
			str[5] = 'F';
     b1e:	8e 83       	std	Y+6, r24	; 0x06
		}			
	}
		
	printLedBuffer(0,str);
     b20:	be 01       	movw	r22, r28
     b22:	6f 5f       	subi	r22, 0xFF	; 255
     b24:	7f 4f       	sbci	r23, 0xFF	; 255
     b26:	80 e0       	ldi	r24, 0x00	; 0
     b28:	1e de       	rcall	.-964    	; 0x766 <printLedBuffer>
	setComma(2);
     b2a:	82 e0       	ldi	r24, 0x02	; 2
     b2c:	62 de       	rcall	.-828    	; 0x7f2 <setComma>
}
     b2e:	27 96       	adiw	r28, 0x07	; 7
     b30:	0f b6       	in	r0, 0x3f	; 63
     b32:	f8 94       	cli
     b34:	de bf       	out	0x3e, r29	; 62
     b36:	0f be       	out	0x3f, r0	; 63
     b38:	cd bf       	out	0x3d, r28	; 61
     b3a:	df 91       	pop	r29
     b3c:	cf 91       	pop	r28
     b3e:	08 95       	ret

00000b40 <mf_leafSelect>:

// Select and exit functions, common for leaf menu items 

void mf_leafSelect(void)
{
	clearExtraLeds(LED_TEMP | LED_ROLL);
     b40:	83 e0       	ldi	r24, 0x03	; 3
     b42:	69 de       	rcall	.-814    	; 0x816 <clearExtraLeds>
	userTimer.FA_GE = 1;	
     b44:	e2 ef       	ldi	r30, 0xF2	; 242
     b46:	f0 e0       	ldi	r31, 0x00	; 0
     b48:	80 81       	ld	r24, Z
     b4a:	80 61       	ori	r24, 0x10	; 16
     b4c:	80 83       	st	Z, r24
     b4e:	08 95       	ret

00000b50 <mf_calibSelect>:
//---------------------------------------------//

void mf_calibSelect(void)
{
	// restore cpoint1, cpoint2
	mf_leafSelect();
     b50:	f7 df       	rcall	.-18     	; 0xb40 <mf_leafSelect>
     b52:	08 95       	ret

00000b54 <mf_rollLeave>:
	printLedBuffer(0,str);
}

void mf_rollLeave(void)
{
	clearExtraLeds(LED_ROLL);
     b54:	82 e0       	ldi	r24, 0x02	; 2
     b56:	5f de       	rcall	.-834    	; 0x816 <clearExtraLeds>
	userTimer.Enabled = 0;
     b58:	e2 ef       	ldi	r30, 0xF2	; 242
     b5a:	f0 e0       	ldi	r31, 0x00	; 0
     b5c:	80 81       	ld	r24, Z
     b5e:	8e 7f       	andi	r24, 0xFE	; 254
     b60:	80 83       	st	Z, r24
     b62:	08 95       	ret

00000b64 <mf_setTempSelect>:
//---------------------------------------------//


void mf_setTempSelect(void)
{
	clearExtraLeds(LED_TEMP);
     b64:	81 e0       	ldi	r24, 0x01	; 1
     b66:	57 de       	rcall	.-850    	; 0x816 <clearExtraLeds>
	mf_leafSelectAct();		// setup and start timer
     b68:	a4 de       	rcall	.-696    	; 0x8b2 <mf_leafSelectAct>
     b6a:	08 95       	ret

00000b6c <mf_realTempLeave>:
	printLedBuffer(0,str);
}

void mf_realTempLeave(void)
{
	clearExtraLeds(LED_TEMP);
     b6c:	81 e0       	ldi	r24, 0x01	; 1
     b6e:	53 de       	rcall	.-858    	; 0x816 <clearExtraLeds>
     b70:	08 95       	ret

00000b72 <mf_rollDo>:
	setExtraLeds(LED_ROLL);
	mf_leafSelectAct();		// setup and start timer
}

void mf_rollDo(void)
{
     b72:	cf 93       	push	r28
     b74:	df 93       	push	r29
     b76:	cd b7       	in	r28, 0x3d	; 61
     b78:	de b7       	in	r29, 0x3e	; 62
     b7a:	27 97       	sbiw	r28, 0x07	; 7
     b7c:	0f b6       	in	r0, 0x3f	; 63
     b7e:	f8 94       	cli
     b80:	de bf       	out	0x3e, r29	; 62
     b82:	0f be       	out	0x3f, r0	; 63
     b84:	cd bf       	out	0x3d, r28	; 61
	char str[] = {' ',' ',' ',' ',' ',' ',0};
     b86:	87 e0       	ldi	r24, 0x07	; 7
     b88:	e0 e9       	ldi	r30, 0x90	; 144
     b8a:	f0 e0       	ldi	r31, 0x00	; 0
     b8c:	de 01       	movw	r26, r28
     b8e:	11 96       	adiw	r26, 0x01	; 1
     b90:	01 90       	ld	r0, Z+
     b92:	0d 92       	st	X+, r0
     b94:	8a 95       	dec	r24
     b96:	e1 f7       	brne	.-8      	; 0xb90 <mf_rollDo+0x1e>
		
	if (button_state & (BD_UP | BR_UP))
     b98:	80 91 c4 00 	lds	r24, 0x00C4
     b9c:	90 91 c5 00 	lds	r25, 0x00C5
     ba0:	9c 01       	movw	r18, r24
     ba2:	22 70       	andi	r18, 0x02	; 2
     ba4:	34 70       	andi	r19, 0x04	; 4
     ba6:	23 2b       	or	r18, r19
     ba8:	41 f0       	breq	.+16     	; 0xbba <mf_rollDo+0x48>
	{
		if (rollCycleSet < MAX_ROLL_CYCLES)
     baa:	80 91 66 00 	lds	r24, 0x0066
     bae:	83 36       	cpi	r24, 0x63	; 99
     bb0:	78 f4       	brcc	.+30     	; 0xbd0 <mf_rollDo+0x5e>
		rollCycleSet += 1;
     bb2:	8f 5f       	subi	r24, 0xFF	; 255
     bb4:	80 93 66 00 	sts	0x0066, r24
     bb8:	0b c0       	rjmp	.+22     	; 0xbd0 <mf_rollDo+0x5e>
	}
	else if (button_state & (BD_DOWN | BR_DOWN))
     bba:	84 70       	andi	r24, 0x04	; 4
     bbc:	98 70       	andi	r25, 0x08	; 8
     bbe:	89 2b       	or	r24, r25
     bc0:	39 f0       	breq	.+14     	; 0xbd0 <mf_rollDo+0x5e>
	{
		if (rollCycleSet > MIN_ROLL_CYCLES)
     bc2:	80 91 66 00 	lds	r24, 0x0066
     bc6:	82 30       	cpi	r24, 0x02	; 2
     bc8:	18 f0       	brcs	.+6      	; 0xbd0 <mf_rollDo+0x5e>
		rollCycleSet -= 1;
     bca:	81 50       	subi	r24, 0x01	; 1
     bcc:	80 93 66 00 	sts	0x0066, r24
	}	
		
	u16toa_align_right(rollCycleSet,str + 4,0x80 | 2,' ');
     bd0:	20 e2       	ldi	r18, 0x20	; 32
     bd2:	42 e8       	ldi	r20, 0x82	; 130
     bd4:	be 01       	movw	r22, r28
     bd6:	6b 5f       	subi	r22, 0xFB	; 251
     bd8:	7f 4f       	sbci	r23, 0xFF	; 255
     bda:	80 91 66 00 	lds	r24, 0x0066
     bde:	90 e0       	ldi	r25, 0x00	; 0
     be0:	dc d1       	rcall	.+952    	; 0xf9a <u16toa_align_right>
	
	if ((!(rollState & ROLL_CYCLE)) || (userTimer.FA_GE))
     be2:	80 91 d0 00 	lds	r24, 0x00D0
     be6:	82 ff       	sbrs	r24, 2
     be8:	04 c0       	rjmp	.+8      	; 0xbf2 <mf_rollDo+0x80>
     bea:	80 91 f2 00 	lds	r24, 0x00F2
     bee:	84 ff       	sbrs	r24, 4
     bf0:	09 c0       	rjmp	.+18     	; 0xc04 <mf_rollDo+0x92>
	{
		u16toa_align_right(activeRollCycle,str + 1,0x80 | 2,' ');
     bf2:	20 e2       	ldi	r18, 0x20	; 32
     bf4:	42 e8       	ldi	r20, 0x82	; 130
     bf6:	be 01       	movw	r22, r28
     bf8:	6e 5f       	subi	r22, 0xFE	; 254
     bfa:	7f 4f       	sbci	r23, 0xFF	; 255
     bfc:	80 91 fd 00 	lds	r24, 0x00FD
     c00:	90 e0       	ldi	r25, 0x00	; 0
     c02:	cb d1       	rcall	.+918    	; 0xf9a <u16toa_align_right>
	}
	
	str[0] = 0;
     c04:	19 82       	std	Y+1, r1	; 0x01
	if (isTopPointValid())
     c06:	0d d3       	rcall	.+1562   	; 0x1222 <isTopPointValid>
     c08:	88 23       	and	r24, r24
     c0a:	19 f0       	breq	.+6      	; 0xc12 <mf_rollDo+0xa0>
		str[0] |= SEGA;
     c0c:	89 81       	ldd	r24, Y+1	; 0x01
     c0e:	81 60       	ori	r24, 0x01	; 1
     c10:	89 83       	std	Y+1, r24	; 0x01
	if (isBottomPointValid())
     c12:	15 d3       	rcall	.+1578   	; 0x123e <isBottomPointValid>
     c14:	88 23       	and	r24, r24
     c16:	19 f0       	breq	.+6      	; 0xc1e <mf_rollDo+0xac>
		str[0] |= SEGD;
     c18:	89 81       	ldd	r24, Y+1	; 0x01
     c1a:	88 60       	ori	r24, 0x08	; 8
     c1c:	89 83       	std	Y+1, r24	; 0x01
	if (str[0] == 0)
     c1e:	89 81       	ldd	r24, Y+1	; 0x01
     c20:	81 11       	cpse	r24, r1
     c22:	02 c0       	rjmp	.+4      	; 0xc28 <mf_rollDo+0xb6>
		str[0] = ' ';
     c24:	80 e2       	ldi	r24, 0x20	; 32
     c26:	89 83       	std	Y+1, r24	; 0x01
		
	printLedBuffer(0,str);
     c28:	be 01       	movw	r22, r28
     c2a:	6f 5f       	subi	r22, 0xFF	; 255
     c2c:	7f 4f       	sbci	r23, 0xFF	; 255
     c2e:	80 e0       	ldi	r24, 0x00	; 0
     c30:	9a dd       	rcall	.-1228   	; 0x766 <printLedBuffer>
}
     c32:	27 96       	adiw	r28, 0x07	; 7
     c34:	0f b6       	in	r0, 0x3f	; 63
     c36:	f8 94       	cli
     c38:	de bf       	out	0x3e, r29	; 62
     c3a:	0f be       	out	0x3f, r0	; 63
     c3c:	cd bf       	out	0x3d, r28	; 61
     c3e:	df 91       	pop	r29
     c40:	cf 91       	pop	r28
     c42:	08 95       	ret

00000c44 <mf_rollSelect>:
//---------------------------------------------//
//---------------------------------------------//

void mf_rollSelect(void)
{
	setExtraLeds(LED_ROLL);
     c44:	82 e0       	ldi	r24, 0x02	; 2
     c46:	e1 dd       	rcall	.-1086   	; 0x80a <setExtraLeds>
	mf_leafSelectAct();		// setup and start timer
     c48:	34 de       	rcall	.-920    	; 0x8b2 <mf_leafSelectAct>
     c4a:	08 95       	ret

00000c4c <mf_setTempDo>:
	clearExtraLeds(LED_TEMP);
	mf_leafSelectAct();		// setup and start timer
}

void mf_setTempDo(void)
{
     c4c:	cf 93       	push	r28
     c4e:	df 93       	push	r29
     c50:	cd b7       	in	r28, 0x3d	; 61
     c52:	de b7       	in	r29, 0x3e	; 62
     c54:	27 97       	sbiw	r28, 0x07	; 7
     c56:	0f b6       	in	r0, 0x3f	; 63
     c58:	f8 94       	cli
     c5a:	de bf       	out	0x3e, r29	; 62
     c5c:	0f be       	out	0x3f, r0	; 63
     c5e:	cd bf       	out	0x3d, r28	; 61
	char str[] = {' ',' ',' ',' ',0xB0,'C',0};
     c60:	87 e0       	ldi	r24, 0x07	; 7
     c62:	e7 e9       	ldi	r30, 0x97	; 151
     c64:	f0 e0       	ldi	r31, 0x00	; 0
     c66:	de 01       	movw	r26, r28
     c68:	11 96       	adiw	r26, 0x01	; 1
     c6a:	01 90       	ld	r0, Z+
     c6c:	0d 92       	st	X+, r0
     c6e:	8a 95       	dec	r24
     c70:	e1 f7       	brne	.-8      	; 0xc6a <mf_setTempDo+0x1e>

	
	if (button_state & (BD_UP | BR_UP))
     c72:	80 91 c4 00 	lds	r24, 0x00C4
     c76:	90 91 c5 00 	lds	r25, 0x00C5
     c7a:	9c 01       	movw	r18, r24
     c7c:	22 70       	andi	r18, 0x02	; 2
     c7e:	34 70       	andi	r19, 0x04	; 4
     c80:	23 2b       	or	r18, r19
     c82:	71 f0       	breq	.+28     	; 0xca0 <mf_setTempDo+0x54>
	{
		if (setup_temp_value < MAX_SET_TEMP)
     c84:	80 91 67 00 	lds	r24, 0x0067
     c88:	90 91 68 00 	lds	r25, 0x0068
     c8c:	82 3d       	cpi	r24, 0xD2	; 210
     c8e:	91 05       	cpc	r25, r1
     c90:	28 f4       	brcc	.+10     	; 0xc9c <mf_setTempDo+0x50>
			setup_temp_value += 5;
     c92:	05 96       	adiw	r24, 0x05	; 5
     c94:	90 93 68 00 	sts	0x0068, r25
     c98:	80 93 67 00 	sts	0x0067, r24
		restartMenuTimer();
     c9c:	01 de       	rcall	.-1022   	; 0x8a0 <restartMenuTimer>
     c9e:	11 c0       	rjmp	.+34     	; 0xcc2 <mf_setTempDo+0x76>
	}
	else if (button_state & (BD_DOWN | BR_DOWN))
     ca0:	84 70       	andi	r24, 0x04	; 4
     ca2:	98 70       	andi	r25, 0x08	; 8
     ca4:	89 2b       	or	r24, r25
     ca6:	69 f0       	breq	.+26     	; 0xcc2 <mf_setTempDo+0x76>
	{
		if (setup_temp_value > MIN_SET_TEMP)
     ca8:	80 91 67 00 	lds	r24, 0x0067
     cac:	90 91 68 00 	lds	r25, 0x0068
     cb0:	8f 31       	cpi	r24, 0x1F	; 31
     cb2:	91 05       	cpc	r25, r1
     cb4:	28 f0       	brcs	.+10     	; 0xcc0 <mf_setTempDo+0x74>
			setup_temp_value -= 5;
     cb6:	05 97       	sbiw	r24, 0x05	; 5
     cb8:	90 93 68 00 	sts	0x0068, r25
     cbc:	80 93 67 00 	sts	0x0067, r24
		restartMenuTimer();
     cc0:	ef dd       	rcall	.-1058   	; 0x8a0 <restartMenuTimer>
	}					
		
	// Output ADC result to LED
	u16toa_align_right(setup_temp_value,str,0x80 | 4,' ');
     cc2:	20 e2       	ldi	r18, 0x20	; 32
     cc4:	44 e8       	ldi	r20, 0x84	; 132
     cc6:	be 01       	movw	r22, r28
     cc8:	6f 5f       	subi	r22, 0xFF	; 255
     cca:	7f 4f       	sbci	r23, 0xFF	; 255
     ccc:	80 91 67 00 	lds	r24, 0x0067
     cd0:	90 91 68 00 	lds	r25, 0x0068
     cd4:	62 d1       	rcall	.+708    	; 0xf9a <u16toa_align_right>
	printLedBuffer(0,str);
     cd6:	be 01       	movw	r22, r28
     cd8:	6f 5f       	subi	r22, 0xFF	; 255
     cda:	7f 4f       	sbci	r23, 0xFF	; 255
     cdc:	80 e0       	ldi	r24, 0x00	; 0
     cde:	43 dd       	rcall	.-1402   	; 0x766 <printLedBuffer>
	
	if (userTimer.FA_GE)
     ce0:	80 91 f2 00 	lds	r24, 0x00F2
     ce4:	84 ff       	sbrs	r24, 4
     ce6:	03 c0       	rjmp	.+6      	; 0xcee <mf_setTempDo+0xa2>
		setExtraLeds(LED_TEMP);
     ce8:	81 e0       	ldi	r24, 0x01	; 1
     cea:	8f dd       	rcall	.-1250   	; 0x80a <setExtraLeds>
     cec:	02 c0       	rjmp	.+4      	; 0xcf2 <mf_setTempDo+0xa6>
	else
		clearExtraLeds(LED_TEMP);
     cee:	81 e0       	ldi	r24, 0x01	; 1
     cf0:	92 dd       	rcall	.-1244   	; 0x816 <clearExtraLeds>
}
     cf2:	27 96       	adiw	r28, 0x07	; 7
     cf4:	0f b6       	in	r0, 0x3f	; 63
     cf6:	f8 94       	cli
     cf8:	de bf       	out	0x3e, r29	; 62
     cfa:	0f be       	out	0x3f, r0	; 63
     cfc:	cd bf       	out	0x3d, r28	; 61
     cfe:	df 91       	pop	r29
     d00:	cf 91       	pop	r28
     d02:	08 95       	ret

00000d04 <mf_realTempSelect>:
//=================================================================//


void mf_realTempSelect(void)
{
	setExtraLeds(LED_TEMP);
     d04:	81 e0       	ldi	r24, 0x01	; 1
     d06:	81 dd       	rcall	.-1278   	; 0x80a <setExtraLeds>
     d08:	08 95       	ret

00000d0a <mf_realTempDo>:
}

void mf_realTempDo(void)
{
     d0a:	cf 93       	push	r28
     d0c:	df 93       	push	r29
     d0e:	cd b7       	in	r28, 0x3d	; 61
     d10:	de b7       	in	r29, 0x3e	; 62
     d12:	27 97       	sbiw	r28, 0x07	; 7
     d14:	0f b6       	in	r0, 0x3f	; 63
     d16:	f8 94       	cli
     d18:	de bf       	out	0x3e, r29	; 62
     d1a:	0f be       	out	0x3f, r0	; 63
     d1c:	cd bf       	out	0x3d, r28	; 61
	char str[] = {' ',' ',' ',' ',0xB0,'C',0};
     d1e:	87 e0       	ldi	r24, 0x07	; 7
     d20:	e7 e9       	ldi	r30, 0x97	; 151
     d22:	f0 e0       	ldi	r31, 0x00	; 0
     d24:	de 01       	movw	r26, r28
     d26:	11 96       	adiw	r26, 0x01	; 1
     d28:	01 90       	ld	r0, Z+
     d2a:	0d 92       	st	X+, r0
     d2c:	8a 95       	dec	r24
     d2e:	e1 f7       	brne	.-8      	; 0xd28 <mf_realTempDo+0x1e>
	// Output ADC result to LED
	uint16_t temp_celsius = conv_ADC_to_Celsius(adc_filtered_value);
     d30:	80 91 d8 00 	lds	r24, 0x00D8
     d34:	90 91 d9 00 	lds	r25, 0x00D9
     d38:	99 da       	rcall	.-2766   	; 0x26c <conv_ADC_to_Celsius>
	u16toa_align_right(temp_celsius,str,0x80 | 4,' ');
     d3a:	20 e2       	ldi	r18, 0x20	; 32
     d3c:	44 e8       	ldi	r20, 0x84	; 132
     d3e:	be 01       	movw	r22, r28
     d40:	6f 5f       	subi	r22, 0xFF	; 255
     d42:	7f 4f       	sbci	r23, 0xFF	; 255
     d44:	2a d1       	rcall	.+596    	; 0xf9a <u16toa_align_right>
	printLedBuffer(0,str);
     d46:	be 01       	movw	r22, r28
     d48:	6f 5f       	subi	r22, 0xFF	; 255
     d4a:	7f 4f       	sbci	r23, 0xFF	; 255
     d4c:	80 e0       	ldi	r24, 0x00	; 0
     d4e:	0b dd       	rcall	.-1514   	; 0x766 <printLedBuffer>
}
     d50:	27 96       	adiw	r28, 0x07	; 7
     d52:	0f b6       	in	r0, 0x3f	; 63
     d54:	f8 94       	cli
     d56:	de bf       	out	0x3e, r29	; 62
     d58:	0f be       	out	0x3f, r0	; 63
     d5a:	cd bf       	out	0x3d, r28	; 61
     d5c:	df 91       	pop	r29
     d5e:	cf 91       	pop	r28
     d60:	08 95       	ret

00000d62 <InitMenu>:
//	Menu initialization
//	Call this function at start of your program before processMenu()
//-----------------------------------------------------------------//
void InitMenu(void)
{
	selectedMenuItemID = mi_REALTEMP;
     d62:	81 e0       	ldi	r24, 0x01	; 1
     d64:	80 93 ed 00 	sts	0x00ED, r24
     d68:	20 e0       	ldi	r18, 0x00	; 0
     d6a:	30 e0       	ldi	r19, 0x00	; 0
static void getMenuFunctionRecord(uint8_t menuItemID, MenuFunctionRecord* menuRecord )
{
	uint8_t i;
	for (i = 0; i < sizeof(menuFunctionSet)/sizeof(MenuFunctionRecord); i++  )
	{
		readMenuRecord(&menuFunctionSet[i], menuRecord);
     d6c:	c9 01       	movw	r24, r18
     d6e:	88 0f       	add	r24, r24
     d70:	99 1f       	adc	r25, r25
     d72:	88 0f       	add	r24, r24
     d74:	99 1f       	adc	r25, r25
     d76:	88 0f       	add	r24, r24
     d78:	99 1f       	adc	r25, r25
     d7a:	82 1b       	sub	r24, r18
     d7c:	93 0b       	sbc	r25, r19
     d7e:	88 5b       	subi	r24, 0xB8	; 184
     d80:	9e 4f       	sbci	r25, 0xFE	; 254
//		fRecPtr		- address of the function record in the FLASH
//		resPtr		- address of the record to fill in the SRAM
//-----------------------------------------------------------------//
static inline void readMenuRecord(const MenuFunctionRecord* fRecPtr, MenuFunctionRecord* resPtr )
{
	resPtr->Item = pgm_read_byte(&fRecPtr->Item);
     d82:	fc 01       	movw	r30, r24
     d84:	64 91       	lpm	r22, Z
	resPtr->SelectFunction = (FuncPtr)pgm_read_word(&fRecPtr->SelectFunction);
     d86:	31 96       	adiw	r30, 0x01	; 1
     d88:	45 91       	lpm	r20, Z+
     d8a:	54 91       	lpm	r21, Z
     d8c:	b4 2f       	mov	r27, r20
     d8e:	a5 2f       	mov	r26, r21
	resPtr->RunFunction = (FuncPtr)pgm_read_word(&fRecPtr->RunFunction);
     d90:	fc 01       	movw	r30, r24
     d92:	33 96       	adiw	r30, 0x03	; 3
     d94:	45 91       	lpm	r20, Z+
     d96:	54 91       	lpm	r21, Z
     d98:	74 2f       	mov	r23, r20
     d9a:	45 2f       	mov	r20, r21
	resPtr->LeaveFunction = (FuncPtr)pgm_read_word(&fRecPtr->LeaveFunction);
     d9c:	05 96       	adiw	r24, 0x05	; 5
     d9e:	fc 01       	movw	r30, r24
     da0:	85 91       	lpm	r24, Z+
     da2:	94 91       	lpm	r25, Z
     da4:	58 2f       	mov	r21, r24
{
	uint8_t i;
	for (i = 0; i < sizeof(menuFunctionSet)/sizeof(MenuFunctionRecord); i++  )
	{
		readMenuRecord(&menuFunctionSet[i], menuRecord);
		if (menuRecord->Item == menuItemID)
     da6:	61 30       	cpi	r22, 0x01	; 1
     da8:	79 f4       	brne	.+30     	; 0xdc8 <InitMenu+0x66>
     daa:	60 93 f6 00 	sts	0x00F6, r22
     dae:	e7 ef       	ldi	r30, 0xF7	; 247
     db0:	f0 e0       	ldi	r31, 0x00	; 0
     db2:	b0 83       	st	Z, r27
     db4:	a1 83       	std	Z+1, r26	; 0x01
     db6:	e9 ef       	ldi	r30, 0xF9	; 249
     db8:	f0 e0       	ldi	r31, 0x00	; 0
     dba:	70 83       	st	Z, r23
     dbc:	41 83       	std	Z+1, r20	; 0x01
     dbe:	eb ef       	ldi	r30, 0xFB	; 251
     dc0:	f0 e0       	ldi	r31, 0x00	; 0
     dc2:	50 83       	st	Z, r21
     dc4:	91 83       	std	Z+1, r25	; 0x01
     dc6:	14 c0       	rjmp	.+40     	; 0xdf0 <InitMenu+0x8e>
     dc8:	2f 5f       	subi	r18, 0xFF	; 255
     dca:	3f 4f       	sbci	r19, 0xFF	; 255
//	Output:
//-----------------------------------------------------------------//
static void getMenuFunctionRecord(uint8_t menuItemID, MenuFunctionRecord* menuRecord )
{
	uint8_t i;
	for (i = 0; i < sizeof(menuFunctionSet)/sizeof(MenuFunctionRecord); i++  )
     dcc:	2d 30       	cpi	r18, 0x0D	; 13
     dce:	31 05       	cpc	r19, r1
     dd0:	09 f0       	breq	.+2      	; 0xdd4 <InitMenu+0x72>
     dd2:	cc cf       	rjmp	.-104    	; 0xd6c <InitMenu+0xa>
     dd4:	60 93 f6 00 	sts	0x00F6, r22
     dd8:	e7 ef       	ldi	r30, 0xF7	; 247
     dda:	f0 e0       	ldi	r31, 0x00	; 0
     ddc:	b0 83       	st	Z, r27
     dde:	a1 83       	std	Z+1, r26	; 0x01
     de0:	e9 ef       	ldi	r30, 0xF9	; 249
     de2:	f0 e0       	ldi	r31, 0x00	; 0
     de4:	70 83       	st	Z, r23
     de6:	41 83       	std	Z+1, r20	; 0x01
     de8:	eb ef       	ldi	r30, 0xFB	; 251
     dea:	f0 e0       	ldi	r31, 0x00	; 0
     dec:	50 83       	st	Z, r21
     dee:	91 83       	std	Z+1, r25	; 0x01
//-----------------------------------------------------------------//
void InitMenu(void)
{
	selectedMenuItemID = mi_REALTEMP;
	getMenuFunctionRecord(selectedMenuItemID, &selectedMenuFunctionRecord);
	processItemFunction(selectedMenuFunctionRecord.SelectFunction);
     df0:	e0 91 f7 00 	lds	r30, 0x00F7
     df4:	f0 91 f8 00 	lds	r31, 0x00F8
//	Arguments:
//		funcAddr - address of the function to run.
//-----------------------------------------------------------------//
static inline void processItemFunction(FuncPtr funcAddr)
{
	if (funcAddr != 0)
     df8:	30 97       	sbiw	r30, 0x00	; 0
     dfa:	09 f0       	breq	.+2      	; 0xdfe <InitMenu+0x9c>
		((FuncPtr)funcAddr)();
     dfc:	09 95       	icall
	selectedMenuItemID = mi_REALTEMP;
	getMenuFunctionRecord(selectedMenuItemID, &selectedMenuFunctionRecord);
	processItemFunction(selectedMenuFunctionRecord.SelectFunction);
	
	// Initialize menu state timer
	menuTimer.Timer = 0;
     dfe:	10 92 ef 00 	sts	0x00EF, r1
	menuTimer.Enabled = 0;
     e02:	ee ee       	ldi	r30, 0xEE	; 238
     e04:	f0 e0       	ldi	r31, 0x00	; 0
     e06:	80 81       	ld	r24, Z
	menuTimer.RunOnce = 1;
     e08:	8e 7f       	andi	r24, 0xFE	; 254
     e0a:	82 60       	ori	r24, 0x02	; 2
     e0c:	80 83       	st	Z, r24
	
	// Initialize user timer
	userTimer.Enabled = 0;
     e0e:	e2 ef       	ldi	r30, 0xF2	; 242
     e10:	f0 e0       	ldi	r31, 0x00	; 0
     e12:	80 81       	ld	r24, Z
	userTimer.RunOnce = 0;
     e14:	8e 7f       	andi	r24, 0xFE	; 254
     e16:	8d 7f       	andi	r24, 0xFD	; 253
     e18:	80 83       	st	Z, r24
     e1a:	08 95       	ret

00000e1c <processMenu>:
//	Main menu control, -  state function calls, jumps 
//	between menu states and indication
//	Call this function from main() with a fixed time interval.
//-----------------------------------------------------------------//
void processMenu(void)
{
     e1c:	ff 92       	push	r15
     e1e:	0f 93       	push	r16
     e20:	1f 93       	push	r17
     e22:	cf 93       	push	r28
     e24:	df 93       	push	r29
	NextItem_t nextItem;
	uint16_t jumpCondition;
	
	processSoftTimer8b(&menuTimer);	
     e26:	8e ee       	ldi	r24, 0xEE	; 238
     e28:	90 e0       	ldi	r25, 0x00	; 0
     e2a:	03 d3       	rcall	.+1542   	; 0x1432 <processSoftTimer8b>
	
	// Compose jump condition
	jumpCondition = button_state;		
     e2c:	40 91 c4 00 	lds	r20, 0x00C4
     e30:	50 91 c5 00 	lds	r21, 0x00C5
	if (menuTimer.FTop)
     e34:	80 91 ee 00 	lds	r24, 0x00EE
     e38:	85 fd       	sbrc	r24, 5
		jumpCondition |= TMR_EXP;
     e3a:	50 68       	ori	r21, 0x80	; 128
	
	// Get next menu item according to current state and jump conditions
	nextItem = getNextMenuItem(selectedMenuItemID, jumpCondition);
     e3c:	b0 91 ed 00 	lds	r27, 0x00ED
     e40:	80 e0       	ldi	r24, 0x00	; 0
     e42:	90 e0       	ldi	r25, 0x00	; 0
	MenuJumpRecord	jRecord;
	uint8_t i;
	
	for (i = 0; i < sizeof(menuJumpSet)/sizeof(MenuJumpRecord); i++  )
	{
		readJumpRecord(&menuJumpSet[i], &jRecord);		// read full jump record
     e44:	9c 01       	movw	r18, r24
     e46:	22 0f       	add	r18, r18
     e48:	33 1f       	adc	r19, r19
     e4a:	22 0f       	add	r18, r18
     e4c:	33 1f       	adc	r19, r19
     e4e:	28 0f       	add	r18, r24
     e50:	39 1f       	adc	r19, r25
     e52:	2d 55       	subi	r18, 0x5D	; 93
     e54:	3e 4f       	sbci	r19, 0xFE	; 254
//		jRecPtr		- address of the jump record in the FLASH
//		resPtr		- address of the record to fill in the SRAM
//-----------------------------------------------------------------//
static inline void readJumpRecord(const MenuJumpRecord* jRecPtr, MenuJumpRecord* resPtr )
{
	resPtr->Item = pgm_read_byte(&jRecPtr->Item);
     e56:	f9 01       	movw	r30, r18
     e58:	a4 91       	lpm	r26, Z
	resPtr->JumpCondition = pgm_read_word(&jRecPtr->JumpCondition);
     e5a:	31 96       	adiw	r30, 0x01	; 1
     e5c:	65 91       	lpm	r22, Z+
     e5e:	74 91       	lpm	r23, Z
	resPtr->NextItem= pgm_read_byte(&jRecPtr->NextItem);
     e60:	f9 01       	movw	r30, r18
     e62:	33 96       	adiw	r30, 0x03	; 3
     e64:	c4 91       	lpm	r28, Z
	resPtr->Flags= pgm_read_byte(&jRecPtr->Flags);
     e66:	f9 01       	movw	r30, r18
     e68:	34 96       	adiw	r30, 0x04	; 4
     e6a:	24 91       	lpm	r18, Z
	uint8_t i;
	
	for (i = 0; i < sizeof(menuJumpSet)/sizeof(MenuJumpRecord); i++  )
	{
		readJumpRecord(&menuJumpSet[i], &jRecord);		// read full jump record
		if (jRecord.Item == selectedItemId)				// If ID match,
     e6c:	ba 13       	cpse	r27, r26
     e6e:	15 c0       	rjmp	.+42     	; 0xe9a <processMenu+0x7e>
		{
			if ((jRecord.JumpCondition & jmpCond) != 0)		// if any of jump conditions match too,
     e70:	64 23       	and	r22, r20
     e72:	75 23       	and	r23, r21
     e74:	67 2b       	or	r22, r23
     e76:	89 f0       	breq	.+34     	; 0xe9a <processMenu+0x7e>
			{
				nextItem.ItemID = jRecord.NextItem;			// switch to next menu item
				nextItem.ItemTimeout = jRecord.Flags & TIMEOUT_MASK;
     e78:	d2 2f       	mov	r29, r18
     e7a:	df 73       	andi	r29, 0x3F	; 63
				nextItem.ShiftRight = (jRecord.Flags & SHIFT_RIGHT) ? 1 : 0;
     e7c:	26 fb       	bst	r18, 6
     e7e:	00 27       	eor	r16, r16
     e80:	00 f9       	bld	r16, 0
				nextItem.ShiftLeft = (jRecord.Flags & SHIFT_LEFT) ? 1 : 0;
     e82:	f2 2e       	mov	r15, r18
     e84:	ff 1c       	adc	r15, r15
     e86:	ff 24       	eor	r15, r15
     e88:	ff 1c       	adc	r15, r15
     e8a:	10 e0       	ldi	r17, 0x00	; 0
     e8c:	f0 fa       	bst	r15, 0
     e8e:	10 f9       	bld	r17, 0
     e90:	00 fb       	bst	r16, 0
     e92:	11 f9       	bld	r17, 1
	
	// Get next menu item according to current state and jump conditions
	nextItem = getNextMenuItem(selectedMenuItemID, jumpCondition);
	
	// If next item differs from current
	if (nextItem.ItemID != selectedMenuItemID)
     e94:	bc 13       	cpse	r27, r28
     e96:	06 c0       	rjmp	.+12     	; 0xea4 <processMenu+0x88>
     e98:	70 c0       	rjmp	.+224    	; 0xf7a <processMenu+0x15e>
     e9a:	01 96       	adiw	r24, 0x01	; 1
	NextItem_t nextItem;
	nextItem.ItemID = selectedItemId;
	MenuJumpRecord	jRecord;
	uint8_t i;
	
	for (i = 0; i < sizeof(menuJumpSet)/sizeof(MenuJumpRecord); i++  )
     e9c:	8d 31       	cpi	r24, 0x1D	; 29
     e9e:	91 05       	cpc	r25, r1
     ea0:	89 f6       	brne	.-94     	; 0xe44 <processMenu+0x28>
     ea2:	6b c0       	rjmp	.+214    	; 0xf7a <processMenu+0x15e>
	
	// If next item differs from current
	if (nextItem.ItemID != selectedMenuItemID)
	{		
		// Call exit function for current item
		processItemFunction(selectedMenuFunctionRecord.LeaveFunction);
     ea4:	e0 91 fb 00 	lds	r30, 0x00FB
     ea8:	f0 91 fc 00 	lds	r31, 0x00FC
//	Arguments:
//		funcAddr - address of the function to run.
//-----------------------------------------------------------------//
static inline void processItemFunction(FuncPtr funcAddr)
{
	if (funcAddr != 0)
     eac:	30 97       	sbiw	r30, 0x00	; 0
     eae:	09 f0       	breq	.+2      	; 0xeb2 <processMenu+0x96>
		((FuncPtr)funcAddr)();
     eb0:	09 95       	icall
		// Call exit function for current item
		processItemFunction(selectedMenuFunctionRecord.LeaveFunction);
		
		// If shifting is specified, start it before calling any 
		//	new menu item functions 
		if (nextItem.ShiftRight)
     eb2:	f0 fa       	bst	r15, 0
     eb4:	10 f9       	bld	r17, 0
     eb6:	00 fb       	bst	r16, 0
     eb8:	11 f9       	bld	r17, 1
     eba:	11 ff       	sbrs	r17, 1
     ebc:	02 c0       	rjmp	.+4      	; 0xec2 <processMenu+0xa6>
			startShiftingWindowRight();
     ebe:	22 dc       	rcall	.-1980   	; 0x704 <startShiftingWindowRight>
     ec0:	02 c0       	rjmp	.+4      	; 0xec6 <processMenu+0xaa>
		else if (nextItem.ShiftLeft)
     ec2:	10 fd       	sbrc	r17, 0
			startShiftingWindowLeft();
     ec4:	11 dc       	rcall	.-2014   	; 0x6e8 <startShiftingWindowLeft>
		
		// Select new item
		selectedMenuItemID = nextItem.ItemID;
     ec6:	c0 93 ed 00 	sts	0x00ED, r28
     eca:	20 e0       	ldi	r18, 0x00	; 0
     ecc:	30 e0       	ldi	r19, 0x00	; 0
static void getMenuFunctionRecord(uint8_t menuItemID, MenuFunctionRecord* menuRecord )
{
	uint8_t i;
	for (i = 0; i < sizeof(menuFunctionSet)/sizeof(MenuFunctionRecord); i++  )
	{
		readMenuRecord(&menuFunctionSet[i], menuRecord);
     ece:	c9 01       	movw	r24, r18
     ed0:	88 0f       	add	r24, r24
     ed2:	99 1f       	adc	r25, r25
     ed4:	88 0f       	add	r24, r24
     ed6:	99 1f       	adc	r25, r25
     ed8:	88 0f       	add	r24, r24
     eda:	99 1f       	adc	r25, r25
     edc:	82 1b       	sub	r24, r18
     ede:	93 0b       	sbc	r25, r19
     ee0:	88 5b       	subi	r24, 0xB8	; 184
     ee2:	9e 4f       	sbci	r25, 0xFE	; 254
//		fRecPtr		- address of the function record in the FLASH
//		resPtr		- address of the record to fill in the SRAM
//-----------------------------------------------------------------//
static inline void readMenuRecord(const MenuFunctionRecord* fRecPtr, MenuFunctionRecord* resPtr )
{
	resPtr->Item = pgm_read_byte(&fRecPtr->Item);
     ee4:	fc 01       	movw	r30, r24
     ee6:	64 91       	lpm	r22, Z
	resPtr->SelectFunction = (FuncPtr)pgm_read_word(&fRecPtr->SelectFunction);
     ee8:	31 96       	adiw	r30, 0x01	; 1
     eea:	45 91       	lpm	r20, Z+
     eec:	54 91       	lpm	r21, Z
     eee:	b4 2f       	mov	r27, r20
     ef0:	a5 2f       	mov	r26, r21
	resPtr->RunFunction = (FuncPtr)pgm_read_word(&fRecPtr->RunFunction);
     ef2:	fc 01       	movw	r30, r24
     ef4:	33 96       	adiw	r30, 0x03	; 3
     ef6:	45 91       	lpm	r20, Z+
     ef8:	54 91       	lpm	r21, Z
     efa:	74 2f       	mov	r23, r20
     efc:	45 2f       	mov	r20, r21
	resPtr->LeaveFunction = (FuncPtr)pgm_read_word(&fRecPtr->LeaveFunction);
     efe:	05 96       	adiw	r24, 0x05	; 5
     f00:	fc 01       	movw	r30, r24
     f02:	85 91       	lpm	r24, Z+
     f04:	94 91       	lpm	r25, Z
     f06:	58 2f       	mov	r21, r24
{
	uint8_t i;
	for (i = 0; i < sizeof(menuFunctionSet)/sizeof(MenuFunctionRecord); i++  )
	{
		readMenuRecord(&menuFunctionSet[i], menuRecord);
		if (menuRecord->Item == menuItemID)
     f08:	c6 13       	cpse	r28, r22
     f0a:	0f c0       	rjmp	.+30     	; 0xf2a <processMenu+0x10e>
     f0c:	60 93 f6 00 	sts	0x00F6, r22
     f10:	e7 ef       	ldi	r30, 0xF7	; 247
     f12:	f0 e0       	ldi	r31, 0x00	; 0
     f14:	b0 83       	st	Z, r27
     f16:	a1 83       	std	Z+1, r26	; 0x01
     f18:	e9 ef       	ldi	r30, 0xF9	; 249
     f1a:	f0 e0       	ldi	r31, 0x00	; 0
     f1c:	70 83       	st	Z, r23
     f1e:	41 83       	std	Z+1, r20	; 0x01
     f20:	eb ef       	ldi	r30, 0xFB	; 251
     f22:	f0 e0       	ldi	r31, 0x00	; 0
     f24:	50 83       	st	Z, r21
     f26:	91 83       	std	Z+1, r25	; 0x01
     f28:	14 c0       	rjmp	.+40     	; 0xf52 <processMenu+0x136>
     f2a:	2f 5f       	subi	r18, 0xFF	; 255
     f2c:	3f 4f       	sbci	r19, 0xFF	; 255
//	Output:
//-----------------------------------------------------------------//
static void getMenuFunctionRecord(uint8_t menuItemID, MenuFunctionRecord* menuRecord )
{
	uint8_t i;
	for (i = 0; i < sizeof(menuFunctionSet)/sizeof(MenuFunctionRecord); i++  )
     f2e:	2d 30       	cpi	r18, 0x0D	; 13
     f30:	31 05       	cpc	r19, r1
     f32:	09 f0       	breq	.+2      	; 0xf36 <processMenu+0x11a>
     f34:	cc cf       	rjmp	.-104    	; 0xece <processMenu+0xb2>
     f36:	60 93 f6 00 	sts	0x00F6, r22
     f3a:	e7 ef       	ldi	r30, 0xF7	; 247
     f3c:	f0 e0       	ldi	r31, 0x00	; 0
     f3e:	b0 83       	st	Z, r27
     f40:	a1 83       	std	Z+1, r26	; 0x01
     f42:	e9 ef       	ldi	r30, 0xF9	; 249
     f44:	f0 e0       	ldi	r31, 0x00	; 0
     f46:	70 83       	st	Z, r23
     f48:	41 83       	std	Z+1, r20	; 0x01
     f4a:	eb ef       	ldi	r30, 0xFB	; 251
     f4c:	f0 e0       	ldi	r31, 0x00	; 0
     f4e:	50 83       	st	Z, r21
     f50:	91 83       	std	Z+1, r25	; 0x01
		selectedMenuItemID = nextItem.ItemID;
		
		// Load from FLASH and save function pointers
		getMenuFunctionRecord(selectedMenuItemID, &selectedMenuFunctionRecord);
		// Call select function for next item
		processItemFunction(selectedMenuFunctionRecord.SelectFunction);
     f52:	e0 91 f7 00 	lds	r30, 0x00F7
     f56:	f0 91 f8 00 	lds	r31, 0x00F8
//	Arguments:
//		funcAddr - address of the function to run.
//-----------------------------------------------------------------//
static inline void processItemFunction(FuncPtr funcAddr)
{
	if (funcAddr != 0)
     f5a:	30 97       	sbiw	r30, 0x00	; 0
     f5c:	09 f0       	breq	.+2      	; 0xf60 <processMenu+0x144>
		((FuncPtr)funcAddr)();
     f5e:	09 95       	icall
		// Load from FLASH and save function pointers
		getMenuFunctionRecord(selectedMenuItemID, &selectedMenuFunctionRecord);
		// Call select function for next item
		processItemFunction(selectedMenuFunctionRecord.SelectFunction);
		// Start timer if timeout is enabled
		if (nextItem.ItemTimeout != 0)
     f60:	dd 23       	and	r29, r29
     f62:	a9 f0       	breq	.+42     	; 0xf8e <processMenu+0x172>
		{
			menuTimer.Top = nextItem.ItemTimeout * MENU_TIMEOUT_MULT;
     f64:	dd 0f       	add	r29, r29
     f66:	d0 93 f0 00 	sts	0x00F0, r29
			menuTimer.Timer = 0;
     f6a:	10 92 ef 00 	sts	0x00EF, r1
			menuTimer.Enabled = 1;	
     f6e:	ee ee       	ldi	r30, 0xEE	; 238
     f70:	f0 e0       	ldi	r31, 0x00	; 0
     f72:	80 81       	ld	r24, Z
     f74:	81 60       	ori	r24, 0x01	; 1
     f76:	80 83       	st	Z, r24
     f78:	0a c0       	rjmp	.+20     	; 0xf8e <processMenu+0x172>
		}
		
	}
	else
	{
		processSoftTimer8b(&userTimer);
     f7a:	82 ef       	ldi	r24, 0xF2	; 242
     f7c:	90 e0       	ldi	r25, 0x00	; 0
     f7e:	59 d2       	rcall	.+1202   	; 0x1432 <processSoftTimer8b>
		// Stay at previous item
		processItemFunction(selectedMenuFunctionRecord.RunFunction);
     f80:	e0 91 f9 00 	lds	r30, 0x00F9
     f84:	f0 91 fa 00 	lds	r31, 0x00FA
//	Arguments:
//		funcAddr - address of the function to run.
//-----------------------------------------------------------------//
static inline void processItemFunction(FuncPtr funcAddr)
{
	if (funcAddr != 0)
     f88:	30 97       	sbiw	r30, 0x00	; 0
     f8a:	09 f0       	breq	.+2      	; 0xf8e <processMenu+0x172>
		((FuncPtr)funcAddr)();
     f8c:	09 95       	icall
	{
		processSoftTimer8b(&userTimer);
		// Stay at previous item
		processItemFunction(selectedMenuFunctionRecord.RunFunction);
	}	
}
     f8e:	df 91       	pop	r29
     f90:	cf 91       	pop	r28
     f92:	1f 91       	pop	r17
     f94:	0f 91       	pop	r16
     f96:	ff 90       	pop	r15
     f98:	08 95       	ret

00000f9a <u16toa_align_right>:
// Converts uint16_t value into decimal string with right alignment
// len = number of digits output (without terminating '\0')
// len[7] = 1 -> no terminating '\0' at buffer[len]
// fill_char -> char used for string padding
void u16toa_align_right(uint16_t val, char *buffer, uint8_t len,char fill_char)
{
     f9a:	cf 93       	push	r28
     f9c:	df 93       	push	r29
     f9e:	fc 01       	movw	r30, r24
     fa0:	52 2f       	mov	r21, r18
	if (len & 0x80)
     fa2:	44 23       	and	r20, r20
     fa4:	2c f4       	brge	.+10     	; 0xfb0 <u16toa_align_right+0x16>
	{
		len = len & 0x7F;
     fa6:	4f 77       	andi	r20, 0x7F	; 127
		buffer += len;	
     fa8:	eb 01       	movw	r28, r22
     faa:	c4 0f       	add	r28, r20
     fac:	d1 1d       	adc	r29, r1
     fae:	04 c0       	rjmp	.+8      	; 0xfb8 <u16toa_align_right+0x1e>
	}
	else
	{
		buffer += len;	
     fb0:	eb 01       	movw	r28, r22
     fb2:	c4 0f       	add	r28, r20
     fb4:	d1 1d       	adc	r29, r1
		*buffer = 0;
     fb6:	18 82       	st	Y, r1
	}
	
	do
	{
		*--buffer = val % 10 + '0';
     fb8:	9f 01       	movw	r18, r30
     fba:	ad ec       	ldi	r26, 0xCD	; 205
     fbc:	bc ec       	ldi	r27, 0xCC	; 204
     fbe:	80 d4       	rcall	.+2304   	; 0x18c0 <__umulhisi3>
     fc0:	96 95       	lsr	r25
     fc2:	87 95       	ror	r24
     fc4:	96 95       	lsr	r25
     fc6:	87 95       	ror	r24
     fc8:	96 95       	lsr	r25
     fca:	87 95       	ror	r24
     fcc:	dc 01       	movw	r26, r24
     fce:	aa 0f       	add	r26, r26
     fd0:	bb 1f       	adc	r27, r27
     fd2:	bc 01       	movw	r22, r24
     fd4:	66 0f       	add	r22, r22
     fd6:	77 1f       	adc	r23, r23
     fd8:	66 0f       	add	r22, r22
     fda:	77 1f       	adc	r23, r23
     fdc:	66 0f       	add	r22, r22
     fde:	77 1f       	adc	r23, r23
     fe0:	6a 0f       	add	r22, r26
     fe2:	7b 1f       	adc	r23, r27
     fe4:	e6 1b       	sub	r30, r22
     fe6:	f7 0b       	sbc	r31, r23
     fe8:	e0 5d       	subi	r30, 0xD0	; 208
     fea:	ea 93       	st	-Y, r30
		val /= 10;
     fec:	fc 01       	movw	r30, r24
		len--;
     fee:	41 50       	subi	r20, 0x01	; 1
	}
	while ((val != 0) && len);
     ff0:	00 97       	sbiw	r24, 0x00	; 0
     ff2:	29 f4       	brne	.+10     	; 0xffe <u16toa_align_right+0x64>
	
	// Padding
	while(len--)
     ff4:	84 2f       	mov	r24, r20
     ff6:	81 50       	subi	r24, 0x01	; 1
     ff8:	41 11       	cpse	r20, r1
     ffa:	04 c0       	rjmp	.+8      	; 0x1004 <u16toa_align_right+0x6a>
     ffc:	07 c0       	rjmp	.+14     	; 0x100c <u16toa_align_right+0x72>
	{
		*--buffer = val % 10 + '0';
		val /= 10;
		len--;
	}
	while ((val != 0) && len);
     ffe:	41 11       	cpse	r20, r1
    1000:	db cf       	rjmp	.-74     	; 0xfb8 <u16toa_align_right+0x1e>
    1002:	04 c0       	rjmp	.+8      	; 0x100c <u16toa_align_right+0x72>
    1004:	fe 01       	movw	r30, r28
	
	// Padding
	while(len--)
		*--buffer = fill_char;
    1006:	52 93       	st	-Z, r21
		len--;
	}
	while ((val != 0) && len);
	
	// Padding
	while(len--)
    1008:	81 50       	subi	r24, 0x01	; 1
    100a:	e8 f7       	brcc	.-6      	; 0x1006 <u16toa_align_right+0x6c>
		*--buffer = fill_char;
}
    100c:	df 91       	pop	r29
    100e:	cf 91       	pop	r28
    1010:	08 95       	ret

00001012 <init_system>:


void init_system()
{
	// Setup Port D
	PORTD = 0; //(1<<PD_SYNCA | 1<<PD_SYNCB);
    1012:	12 ba       	out	0x12, r1	; 18
	DDRD = (1<<PD_TXD | 1<<PD_M1 | 1<<PD_M2 | 1<<PD_HEATER | 1<<PD_HEAT_INDIC );
    1014:	8e e3       	ldi	r24, 0x3E	; 62
    1016:	81 bb       	out	0x11, r24	; 17
	
	// Setup Port B
	PORTB = 0;
    1018:	18 ba       	out	0x18, r1	; 24
	DDRB = (1<<PB_BEEPER | 1<<PB_LED_DOUT | 1<<PB_LED_CLK | 1<<PB_SEGF | 1<<PB_SEGG | 1<<PB_SEGH);
    101a:	8f e3       	ldi	r24, 0x3F	; 63
    101c:	87 bb       	out	0x17, r24	; 23
	
	PORTC = 0;
    101e:	15 ba       	out	0x15, r1	; 21
	DDRC = (1<<PC_SEGA | 1<<PC_SEGB | 1<<PC_SEGC | 1<<PC_SEGD | 1<<PC_SEGE);	
    1020:	8f e1       	ldi	r24, 0x1F	; 31
    1022:	84 bb       	out	0x14, r24	; 20

	// Setup timer0
	// 1/1024 prescaler, T=64us @16MHz
	TCCR0 = (1<<CS02 | 0<<CS01 | 1<<CS00);
    1024:	85 e0       	ldi	r24, 0x05	; 5
    1026:	83 bf       	out	0x33, r24	; 51
	// Start 256 * 64us = 16384us interval
	TCNT0 = 0;
    1028:	12 be       	out	0x32, r1	; 50
	// Clear interrupt flag
	TIFR |= (1<<TOV0);
    102a:	88 b7       	in	r24, 0x38	; 56
    102c:	81 60       	ori	r24, 0x01	; 1
    102e:	88 bf       	out	0x38, r24	; 56
	// Enable interrupts from timer 0
	TIMSK |= (1<<TOIE0);
    1030:	89 b7       	in	r24, 0x39	; 57
    1032:	81 60       	ori	r24, 0x01	; 1
    1034:	89 bf       	out	0x39, r24	; 57
	
	// Setup timer2 as 1ms system frequency generator
	// 1/64 prescaler, CTC mode, OC2 disconnected
	TCCR2 = (1<<CS22 | 1<<WGM21);
    1036:	8c e0       	ldi	r24, 0x0C	; 12
    1038:	85 bd       	out	0x25, r24	; 37
	OCR2 = 249;
    103a:	89 ef       	ldi	r24, 0xF9	; 249
    103c:	83 bd       	out	0x23, r24	; 35
	TIMSK |= (1<<OCIE2);
    103e:	89 b7       	in	r24, 0x39	; 57
    1040:	80 68       	ori	r24, 0x80	; 128
    1042:	89 bf       	out	0x39, r24	; 57
	
	// Setup timer1 as beeper frequency generator
	// CTC mode, 1/64 prescaler
	TCCR1A = 0;
    1044:	1f bc       	out	0x2f, r1	; 47
	TCCR1B = (1<<WGM12 | 1<<CS11 | 1<<CS10);
    1046:	8b e0       	ldi	r24, 0x0B	; 11
    1048:	8e bd       	out	0x2e, r24	; 46
	// 1kHz beeper frequency default
	OCR1A = 127;
    104a:	8f e7       	ldi	r24, 0x7F	; 127
    104c:	90 e0       	ldi	r25, 0x00	; 0
    104e:	9b bd       	out	0x2b, r25	; 43
    1050:	8a bd       	out	0x2a, r24	; 42

	// Setup AC sync comparator
	// Interrupt on output toggle
	ACSR |= (1<<ACI);
    1052:	44 9a       	sbi	0x08, 4	; 8
	ACSR = (1<<ACIE | 0<<ACIS1 | 0<<ACIS0);
    1054:	88 e0       	ldi	r24, 0x08	; 8
    1056:	88 b9       	out	0x08, r24	; 8
	
	// Setup ADC
	// Internal Vref + cap, input ADC5, 
	ADMUX = (1<<REFS1 | 1<<REFS0 | 0<<MUX3 | 1<<MUX2 | 0<<MUX1 | 1<<MUX0 );
    1058:	85 ec       	ldi	r24, 0xC5	; 197
    105a:	87 b9       	out	0x07, r24	; 7
	// Prescaler = 128
	ADCSRA = (1<<ADEN |/* 1<<ADFR |*/  1<<ADIE | 1<<ADPS2 | 1<<ADPS1 | 1<<ADPS0);
    105c:	8f e8       	ldi	r24, 0x8F	; 143
    105e:	86 b9       	out	0x06, r24	; 6
	
	// Setup USART
	// Double speed
	UCSRA = (1<<U2X);
    1060:	82 e0       	ldi	r24, 0x02	; 2
    1062:	8b b9       	out	0x0b, r24	; 11
	UCSRB = (1<<RXEN | 1<<TXEN | 0<<UCSZ2);
    1064:	88 e1       	ldi	r24, 0x18	; 24
    1066:	8a b9       	out	0x0a, r24	; 10
	// No parity, 1 stop bit, 8 bit
	UCSRC = (1<<URSEL | 0<<UPM1 | 0<<UPM0 | 0<<USBS | 1<<UCSZ1 | 1<<UCSZ0);
    1068:	86 e8       	ldi	r24, 0x86	; 134
    106a:	80 bd       	out	0x20, r24	; 32
	// 57600 @16MHz, 2x
	UBRRH=0x00;
    106c:	10 bc       	out	0x20, r1	; 32
	UBRRL=0x22;
    106e:	82 e2       	ldi	r24, 0x22	; 34
    1070:	89 b9       	out	0x09, r24	; 9
    1072:	08 95       	ret

00001074 <main>:




int main(void)
{
    1074:	cf 93       	push	r28
    1076:	df 93       	push	r29
    1078:	cd b7       	in	r28, 0x3d	; 61
    107a:	de b7       	in	r29, 0x3e	; 62
    107c:	2a 97       	sbiw	r28, 0x0a	; 10
    107e:	0f b6       	in	r0, 0x3f	; 63
    1080:	f8 94       	cli
    1082:	de bf       	out	0x3e, r29	; 62
    1084:	0f be       	out	0x3f, r0	; 63
    1086:	cd bf       	out	0x3d, r28	; 61
	uint8_t temp8u = 0x00;
	uint8_t uart_log_timeout_counter = 0;
	uint16_t uart_log_counter = 0;
	
	// Initialize IO
	init_system();
    1088:	c4 df       	rcall	.-120    	; 0x1012 <init_system>
	// Initialize LED indicator
	initLedIndicator();
    108a:	4a db       	rcall	.-2412   	; 0x720 <initLedIndicator>
	// Enable interrupts
	sei();
    108c:	78 94       	sei
	
	// Beep
	//SetBeeperFreq(1000);
	//StartBeep(200);
	
	InitMenu();
    108e:	69 de       	rcall	.-814    	; 0xd62 <InitMenu>

	setMotorDirection(ROLL_FWD);
    1090:	81 e0       	ldi	r24, 0x01	; 1
    1092:	75 d0       	rcall	.+234    	; 0x117e <setMotorDirection>
	
	//button_state = BD_UP;
	//processMenu();
	
	printLedBuffer(0,"      ");
    1094:	65 ea       	ldi	r22, 0xA5	; 165
    1096:	70 e0       	ldi	r23, 0x00	; 0
    1098:	80 e0       	ldi	r24, 0x00	; 0
    109a:	65 db       	rcall	.-2358   	; 0x766 <printLedBuffer>
int main(void)
{
	char str[10];
	uint8_t temp8u = 0x00;
	uint8_t uart_log_timeout_counter = 0;
	uint16_t uart_log_counter = 0;
    109c:	e1 2c       	mov	r14, r1
    109e:	f1 2c       	mov	r15, r1

int main(void)
{
	char str[10];
	uint8_t temp8u = 0x00;
	uint8_t uart_log_timeout_counter = 0;
    10a0:	d1 2c       	mov	r13, r1
	printLedBuffer(0,"      ");
	
    while(1)
    {
		
		if (menuUpdateTimer.FOvfl)
    10a2:	00 e7       	ldi	r16, 0x70	; 112
    10a4:	10 e0       	ldi	r17, 0x00	; 0
				//---------------------------------//
				// Function is called every 100ms
				// UART message is sent every second
				if (uart_log_timeout_counter == 9)
				{
					uart_log_timeout_counter = 0;
    10a6:	c1 2c       	mov	r12, r1
	printLedBuffer(0,"      ");
	
    while(1)
    {
		
		if (menuUpdateTimer.FOvfl)
    10a8:	f8 01       	movw	r30, r16
    10aa:	80 81       	ld	r24, Z
    10ac:	86 ff       	sbrs	r24, 6
    10ae:	fc cf       	rjmp	.-8      	; 0x10a8 <main+0x34>
		{
			// Get new temperature measurement
			update_filtered_adc();
    10b0:	ef d8       	rcall	.-3618   	; 0x290 <update_filtered_adc>
			
			// Get new button state
			process_buttons();
    10b2:	4f d9       	rcall	.-3426   	; 0x352 <process_buttons>
			
			// Give audio feedback
			if (button_state & BL_MENU)
    10b4:	20 91 c4 00 	lds	r18, 0x00C4
    10b8:	30 91 c5 00 	lds	r19, 0x00C5
    10bc:	31 ff       	sbrs	r19, 1
    10be:	07 c0       	rjmp	.+14     	; 0x10ce <main+0x5a>
			{
				SetBeeperFreq(800);
    10c0:	80 e2       	ldi	r24, 0x20	; 32
    10c2:	93 e0       	ldi	r25, 0x03	; 3
    10c4:	e4 d1       	rcall	.+968    	; 0x148e <SetBeeperFreq>
				StartBeep(40);
    10c6:	88 e2       	ldi	r24, 0x28	; 40
    10c8:	90 e0       	ldi	r25, 0x00	; 0
    10ca:	02 d2       	rcall	.+1028   	; 0x14d0 <StartBeep>
    10cc:	0a c0       	rjmp	.+20     	; 0x10e2 <main+0x6e>
			}
			else if (button_action_down & (BD_MENU | BD_UP | BD_DOWN | BD_HEATCTRL))
    10ce:	80 91 c3 00 	lds	r24, 0x00C3
    10d2:	87 74       	andi	r24, 0x47	; 71
    10d4:	31 f0       	breq	.+12     	; 0x10e2 <main+0x6e>
			{
				SetBeeperFreq(1000);
    10d6:	88 ee       	ldi	r24, 0xE8	; 232
    10d8:	93 e0       	ldi	r25, 0x03	; 3
    10da:	d9 d1       	rcall	.+946    	; 0x148e <SetBeeperFreq>
				StartBeep(40);
    10dc:	88 e2       	ldi	r24, 0x28	; 40
    10de:	90 e0       	ldi	r25, 0x00	; 0
    10e0:	f7 d1       	rcall	.+1006   	; 0x14d0 <StartBeep>
			}	
			

			// Process user menu states, settings and indication
			processMenu();
    10e2:	9c de       	rcall	.-712    	; 0xe1c <processMenu>
			
			// Process cyclic rolling, direction control
			processRollControl();	
    10e4:	a9 d9       	rcall	.-3246   	; 0x438 <processRollControl>
			
			// Process heater regulation
			processHeaterControl();
    10e6:	0f da       	rcall	.-3042   	; 0x506 <processHeaterControl>
		


			if (menuUpdateTimer.FA_TGL)
    10e8:	f8 01       	movw	r30, r16
    10ea:	80 81       	ld	r24, Z
    10ec:	82 ff       	sbrs	r24, 2
    10ee:	32 c0       	rjmp	.+100    	; 0x1154 <main+0xe0>
				//---------------------------------//
				// Log to UART
				//---------------------------------//
				// Function is called every 100ms
				// UART message is sent every second
				if (uart_log_timeout_counter == 9)
    10f0:	f9 e0       	ldi	r31, 0x09	; 9
    10f2:	df 12       	cpse	r13, r31
    10f4:	2e c0       	rjmp	.+92     	; 0x1152 <main+0xde>
				{
					uart_log_timeout_counter = 0;
					
					
					u16toa_align_right(uart_log_counter,str,5,' ');
    10f6:	20 e2       	ldi	r18, 0x20	; 32
    10f8:	45 e0       	ldi	r20, 0x05	; 5
    10fa:	be 01       	movw	r22, r28
    10fc:	6f 5f       	subi	r22, 0xFF	; 255
    10fe:	7f 4f       	sbci	r23, 0xFF	; 255
    1100:	c7 01       	movw	r24, r14
    1102:	4b df       	rcall	.-362    	; 0xf9a <u16toa_align_right>
					USART_sendstr(str);
    1104:	ce 01       	movw	r24, r28
    1106:	01 96       	adiw	r24, 0x01	; 1
    1108:	2a d2       	rcall	.+1108   	; 0x155e <USART_sendstr>
					USART_sendstr("     ");
    110a:	86 ea       	ldi	r24, 0xA6	; 166
    110c:	90 e0       	ldi	r25, 0x00	; 0
    110e:	27 d2       	rcall	.+1102   	; 0x155e <USART_sendstr>
					
					u16toa_align_right(adc_filtered_value,str,5,' ');
    1110:	20 e2       	ldi	r18, 0x20	; 32
    1112:	45 e0       	ldi	r20, 0x05	; 5
    1114:	be 01       	movw	r22, r28
    1116:	6f 5f       	subi	r22, 0xFF	; 255
    1118:	7f 4f       	sbci	r23, 0xFF	; 255
    111a:	80 91 d8 00 	lds	r24, 0x00D8
    111e:	90 91 d9 00 	lds	r25, 0x00D9
    1122:	3b df       	rcall	.-394    	; 0xf9a <u16toa_align_right>
					USART_sendstr(str);
    1124:	ce 01       	movw	r24, r28
    1126:	01 96       	adiw	r24, 0x01	; 1
    1128:	1a d2       	rcall	.+1076   	; 0x155e <USART_sendstr>
					USART_sendstr("     ");
    112a:	86 ea       	ldi	r24, 0xA6	; 166
    112c:	90 e0       	ldi	r25, 0x00	; 0
    112e:	17 d2       	rcall	.+1070   	; 0x155e <USART_sendstr>
					
					if (heaterState & HEATER_ENABLED)
    1130:	80 91 d1 00 	lds	r24, 0x00D1
    1134:	86 ff       	sbrs	r24, 6
    1136:	03 c0       	rjmp	.+6      	; 0x113e <main+0xca>
					USART_send('1');
    1138:	81 e3       	ldi	r24, 0x31	; 49
    113a:	0c d2       	rcall	.+1048   	; 0x1554 <USART_send>
    113c:	02 c0       	rjmp	.+4      	; 0x1142 <main+0xce>
					else
					USART_send('0');
    113e:	80 e3       	ldi	r24, 0x30	; 48
    1140:	09 d2       	rcall	.+1042   	; 0x1554 <USART_send>
					
					USART_sendstr("\n\r");
    1142:	8c ea       	ldi	r24, 0xAC	; 172
    1144:	90 e0       	ldi	r25, 0x00	; 0
    1146:	0b d2       	rcall	.+1046   	; 0x155e <USART_sendstr>
					
					uart_log_counter++;
    1148:	8f ef       	ldi	r24, 0xFF	; 255
    114a:	e8 1a       	sub	r14, r24
    114c:	f8 0a       	sbc	r15, r24
				//---------------------------------//
				// Function is called every 100ms
				// UART message is sent every second
				if (uart_log_timeout_counter == 9)
				{
					uart_log_timeout_counter = 0;
    114e:	dc 2c       	mov	r13, r12
    1150:	01 c0       	rjmp	.+2      	; 0x1154 <main+0xe0>
					uart_log_counter++;
					
				}
				else
				{
					uart_log_timeout_counter++;
    1152:	d3 94       	inc	r13
			}
			
			
			
			
			menuUpdateTimer.FOvfl = 0;	
    1154:	f8 01       	movw	r30, r16
    1156:	80 81       	ld	r24, Z
    1158:	8f 7b       	andi	r24, 0xBF	; 191
    115a:	80 83       	st	Z, r24
    115c:	a5 cf       	rjmp	.-182    	; 0x10a8 <main+0x34>

0000115e <setHeaterControl>:


// User function to control heater intensity
inline void setHeaterControl(uint8_t value)
{
	ctrl_heater = value;
    115e:	80 93 d2 00 	sts	0x00D2, r24
	heaterState &= ~READY_TO_UPDATE_HEATER;
    1162:	90 91 d1 00 	lds	r25, 0x00D1
    1166:	29 2f       	mov	r18, r25
    1168:	2f 77       	andi	r18, 0x7F	; 127
	
	if (ctrl_heater)
    116a:	88 23       	and	r24, r24
    116c:	21 f0       	breq	.+8      	; 0x1176 <setHeaterControl+0x18>
		heaterState |= HEATER_ENABLED;
    116e:	20 64       	ori	r18, 0x40	; 64
    1170:	20 93 d1 00 	sts	0x00D1, r18
    1174:	08 95       	ret
	else
		heaterState &= ~HEATER_ENABLED;	
    1176:	9f 73       	andi	r25, 0x3F	; 63
    1178:	90 93 d1 00 	sts	0x00D1, r25
    117c:	08 95       	ret

0000117e <setMotorDirection>:
	
// User function to control motor rotation
void setMotorDirection(uint8_t dir)
{
	// Disable interrupts from timer0 
	TIMSK &= ~(1<<TOIE0);
    117e:	99 b7       	in	r25, 0x39	; 57
    1180:	9e 7f       	andi	r25, 0xFE	; 254
    1182:	99 bf       	out	0x39, r25	; 57
		
	newDirReq = dir;	// save new direction request
    1184:	80 93 d3 00 	sts	0x00D3, r24
	
	if (dir & ROLL_FWD)
    1188:	80 ff       	sbrs	r24, 0
    118a:	09 c0       	rjmp	.+18     	; 0x119e <setMotorDirection+0x20>
		bottomPoint = rollPoint;
    118c:	80 91 69 00 	lds	r24, 0x0069
    1190:	90 91 6a 00 	lds	r25, 0x006A
    1194:	90 93 6c 00 	sts	0x006C, r25
    1198:	80 93 6b 00 	sts	0x006B, r24
    119c:	0a c0       	rjmp	.+20     	; 0x11b2 <setMotorDirection+0x34>
	else if (dir & ROLL_REV)
    119e:	81 ff       	sbrs	r24, 1
    11a0:	08 c0       	rjmp	.+16     	; 0x11b2 <setMotorDirection+0x34>
		topPoint = rollPoint;
    11a2:	80 91 69 00 	lds	r24, 0x0069
    11a6:	90 91 6a 00 	lds	r25, 0x006A
    11aa:	90 93 6e 00 	sts	0x006E, r25
    11ae:	80 93 6d 00 	sts	0x006D, r24
		

	// Enable interrupts from timer 0
	TIMSK |= (1<<TOIE0);	
    11b2:	89 b7       	in	r24, 0x39	; 57
    11b4:	81 60       	ori	r24, 0x01	; 1
    11b6:	89 bf       	out	0x39, r24	; 57
    11b8:	08 95       	ret

000011ba <startCycleRolling>:


uint8_t startCycleRolling(void)
{
	// Disable interrupts from timer0 
	TIMSK &= ~(1<<TOIE0);
    11ba:	89 b7       	in	r24, 0x39	; 57
    11bc:	8e 7f       	andi	r24, 0xFE	; 254
    11be:	89 bf       	out	0x39, r24	; 57
	
	if ( ((rollPoint + CYCLE_SAFE_MARGIN) <= topPoint) && 
    11c0:	80 91 69 00 	lds	r24, 0x0069
    11c4:	90 91 6a 00 	lds	r25, 0x006A
    11c8:	ac 01       	movw	r20, r24
    11ca:	46 5f       	subi	r20, 0xF6	; 246
    11cc:	5f 4f       	sbci	r21, 0xFF	; 255
    11ce:	20 91 6d 00 	lds	r18, 0x006D
    11d2:	30 91 6e 00 	lds	r19, 0x006E
    11d6:	24 17       	cp	r18, r20
    11d8:	35 07       	cpc	r19, r21
    11da:	80 f0       	brcs	.+32     	; 0x11fc <startCycleRolling+0x42>
		 ((rollPoint - CYCLE_SAFE_MARGIN) >= bottomPoint) )
    11dc:	0a 97       	sbiw	r24, 0x0a	; 10
uint8_t startCycleRolling(void)
{
	// Disable interrupts from timer0 
	TIMSK &= ~(1<<TOIE0);
	
	if ( ((rollPoint + CYCLE_SAFE_MARGIN) <= topPoint) && 
    11de:	20 91 6b 00 	lds	r18, 0x006B
    11e2:	30 91 6c 00 	lds	r19, 0x006C
    11e6:	82 17       	cp	r24, r18
    11e8:	93 07       	cpc	r25, r19
    11ea:	40 f0       	brcs	.+16     	; 0x11fc <startCycleRolling+0x42>
		 ((rollPoint - CYCLE_SAFE_MARGIN) >= bottomPoint) )
	{
		rollState |= ROLL_CYCLE;
    11ec:	80 91 d0 00 	lds	r24, 0x00D0
    11f0:	84 60       	ori	r24, 0x04	; 4
    11f2:	80 93 d0 00 	sts	0x00D0, r24
		activeRollCycle = 1;
    11f6:	81 e0       	ldi	r24, 0x01	; 1
    11f8:	80 93 fd 00 	sts	0x00FD, r24
	}
	
	// Enable interrupts from timer 0
	TIMSK |= (1<<TOIE0);
    11fc:	89 b7       	in	r24, 0x39	; 57
    11fe:	81 60       	ori	r24, 0x01	; 1
    1200:	89 bf       	out	0x39, r24	; 57
	
	return (rollState & ROLL_CYCLE);
    1202:	80 91 d0 00 	lds	r24, 0x00D0
}
    1206:	84 70       	andi	r24, 0x04	; 4
    1208:	08 95       	ret

0000120a <stopCycleRolling>:

void stopCycleRolling(void)
{
	// Disable interrupts from timer0 
	TIMSK &= ~(1<<TOIE0);
    120a:	89 b7       	in	r24, 0x39	; 57
    120c:	8e 7f       	andi	r24, 0xFE	; 254
    120e:	89 bf       	out	0x39, r24	; 57
	
	rollState &= ~ROLL_CYCLE;
    1210:	80 91 d0 00 	lds	r24, 0x00D0
    1214:	8b 7f       	andi	r24, 0xFB	; 251
    1216:	80 93 d0 00 	sts	0x00D0, r24
	
	// Enable interrupts from timer 0
	TIMSK |= (1<<TOIE0);
    121a:	89 b7       	in	r24, 0x39	; 57
    121c:	81 60       	ori	r24, 0x01	; 1
    121e:	89 bf       	out	0x39, r24	; 57
    1220:	08 95       	ret

00001222 <isTopPointValid>:


// Used for indication
uint8_t isTopPointValid(void)
{
	return (	rollPoint <= topPoint	);	
    1222:	81 e0       	ldi	r24, 0x01	; 1
    1224:	40 91 69 00 	lds	r20, 0x0069
    1228:	50 91 6a 00 	lds	r21, 0x006A
    122c:	20 91 6d 00 	lds	r18, 0x006D
    1230:	30 91 6e 00 	lds	r19, 0x006E
    1234:	24 17       	cp	r18, r20
    1236:	35 07       	cpc	r19, r21
    1238:	08 f4       	brcc	.+2      	; 0x123c <isTopPointValid+0x1a>
    123a:	80 e0       	ldi	r24, 0x00	; 0
}
    123c:	08 95       	ret

0000123e <isBottomPointValid>:

uint8_t isBottomPointValid(void)
{
	return (	rollPoint >= bottomPoint	);	
    123e:	81 e0       	ldi	r24, 0x01	; 1
    1240:	40 91 69 00 	lds	r20, 0x0069
    1244:	50 91 6a 00 	lds	r21, 0x006A
    1248:	20 91 6b 00 	lds	r18, 0x006B
    124c:	30 91 6c 00 	lds	r19, 0x006C
    1250:	42 17       	cp	r20, r18
    1252:	53 07       	cpc	r21, r19
    1254:	08 f4       	brcc	.+2      	; 0x1258 <isBottomPointValid+0x1a>
    1256:	80 e0       	ldi	r24, 0x00	; 0
}
    1258:	08 95       	ret

0000125a <__vector_16>:




ISR(ANA_COMP_vect)
{
    125a:	1f 92       	push	r1
    125c:	0f 92       	push	r0
    125e:	0f b6       	in	r0, 0x3f	; 63
    1260:	0f 92       	push	r0
    1262:	11 24       	eor	r1, r1
    1264:	8f 93       	push	r24
    1266:	9f 93       	push	r25
	// Once triggered, disable further comparator interrupt
	ACSR &= ~(1<<ACIE);
    1268:	43 98       	cbi	0x08, 3	; 8
	// Turn on heater TRIAC
	if (heater_cnt < ctrl_heater_sync)
    126a:	90 91 d4 00 	lds	r25, 0x00D4
    126e:	80 91 d5 00 	lds	r24, 0x00D5
    1272:	98 17       	cp	r25, r24
    1274:	08 f4       	brcc	.+2      	; 0x1278 <__vector_16+0x1e>
		PORTD |= (1<<PD_HEATER);// | 1<<PD_HEAT_INDIC);	// Direct heater indication
    1276:	94 9a       	sbi	0x12, 4	; 18
	//else
	//	PORTD &= ~(1<<PD_HEAT_INDIC);
	// Reprogram timer0
	TCNT0 = 256 - TRIAC_IMPULSE_TIME;		// Triac gate impulse time
    1278:	86 ef       	ldi	r24, 0xF6	; 246
    127a:	82 bf       	out	0x32, r24	; 50
	// Modify state	
	p_state &= ~STATE_MASK;					// Start new state machine cycle
    127c:	80 91 6f 00 	lds	r24, 0x006F
    1280:	80 7f       	andi	r24, 0xF0	; 240
	p_state ^= HALF_PERIOD_FLAG;			// Toggle flag
    1282:	80 58       	subi	r24, 0x80	; 128
    1284:	80 93 6f 00 	sts	0x006F, r24
	
}
    1288:	9f 91       	pop	r25
    128a:	8f 91       	pop	r24
    128c:	0f 90       	pop	r0
    128e:	0f be       	out	0x3f, r0	; 63
    1290:	0f 90       	pop	r0
    1292:	1f 90       	pop	r1
    1294:	18 95       	reti

00001296 <__vector_9>:



ISR(TIMER0_OVF_vect)
{
    1296:	1f 92       	push	r1
    1298:	0f 92       	push	r0
    129a:	0f b6       	in	r0, 0x3f	; 63
    129c:	0f 92       	push	r0
    129e:	11 24       	eor	r1, r1
    12a0:	2f 93       	push	r18
    12a2:	3f 93       	push	r19
    12a4:	4f 93       	push	r20
    12a6:	8f 93       	push	r24
    12a8:	9f 93       	push	r25
	uint8_t temp;
	
	switch(p_state & STATE_MASK)
    12aa:	80 91 6f 00 	lds	r24, 0x006F
    12ae:	8f 70       	andi	r24, 0x0F	; 15
    12b0:	81 30       	cpi	r24, 0x01	; 1
    12b2:	51 f0       	breq	.+20     	; 0x12c8 <__vector_9+0x32>
    12b4:	28 f0       	brcs	.+10     	; 0x12c0 <__vector_9+0x2a>
    12b6:	82 30       	cpi	r24, 0x02	; 2
    12b8:	51 f0       	breq	.+20     	; 0x12ce <__vector_9+0x38>
    12ba:	83 30       	cpi	r24, 0x03	; 3
    12bc:	91 f4       	brne	.+36     	; 0x12e2 <__vector_9+0x4c>
    12be:	0c c0       	rjmp	.+24     	; 0x12d8 <__vector_9+0x42>
	{
		// TRIAC_IMPULSE_TIME finished
		case 0x00:
			// Turn off heater TRIAC
			PORTD &= ~(1<<PD_HEATER);
    12c0:	94 98       	cbi	0x12, 4	; 18
			TCNT0 = 256 - (QUATER_PERIOD_TIME - TRIAC_IMPULSE_TIME);
    12c2:	8c eb       	ldi	r24, 0xBC	; 188
    12c4:	82 bf       	out	0x32, r24	; 50
			break;
    12c6:	0d c0       	rjmp	.+26     	; 0x12e2 <__vector_9+0x4c>
		// QUATER_PERIOD_TIME finished	
		case 0x01:	
			TCNT0 = 256 - (SYNC_IGNORE_TIME - QUATER_PERIOD_TIME);
    12c8:	82 ec       	ldi	r24, 0xC2	; 194
    12ca:	82 bf       	out	0x32, r24	; 50
			break;	
    12cc:	0a c0       	rjmp	.+20     	; 0x12e2 <__vector_9+0x4c>
		// SYNC_IGNORE_TIME finished	
		case 0x02:
			TCNT0 = 256 - SYNC_LOST_TIMEOUT;
    12ce:	80 ee       	ldi	r24, 0xE0	; 224
    12d0:	82 bf       	out	0x32, r24	; 50
			// Clear flag and enable interrupt from analog comparator
			ACSR |= (1<<ACI);
    12d2:	44 9a       	sbi	0x08, 4	; 8
			ACSR |= (1<<ACIE);
    12d4:	43 9a       	sbi	0x08, 3	; 8
			break;
    12d6:	05 c0       	rjmp	.+10     	; 0x12e2 <__vector_9+0x4c>
		// SYNC_LOST_TIMEOUT finished
		case 0x03:
			// Error - sync is lost. It means that device has been disconnected from AC line.
			// Disable all power-consuming devices like LEDs and save user settings to EEPROM.
			PORTD &= ~(1<<PD_HEATER | 1<<PD_M1 | 1<<PD_M2);
    12d8:	82 b3       	in	r24, 0x12	; 18
    12da:	83 7e       	andi	r24, 0xE3	; 227
    12dc:	82 bb       	out	0x12, r24	; 18
			heater_cnt = 0;
    12de:	10 92 d4 00 	sts	0x00D4, r1
			// Sync is not present - TODO
			break;
	}	

	// Full period check
	if ((p_state & (HALF_PERIOD_FLAG | STATE_MASK)) == (HALF_PERIOD_FLAG | 0x01))
    12e2:	80 91 6f 00 	lds	r24, 0x006F
    12e6:	8f 78       	andi	r24, 0x8F	; 143
    12e8:	81 38       	cpi	r24, 0x81	; 129
    12ea:	09 f0       	breq	.+2      	; 0x12ee <__vector_9+0x58>
    12ec:	8f c0       	rjmp	.+286    	; 0x140c <__vector_9+0x176>
	{
		// Full AC line period is done. Update controls.
		
		temp = PORTD;
    12ee:	92 b3       	in	r25, 0x12	; 18
		temp &= ~(1<<PD_M1 | 1<<PD_M2);
    12f0:	93 7f       	andi	r25, 0xF3	; 243
		if ( rollState & SKIP_CURRENT_MOTOR_CTRL )
    12f2:	80 91 d0 00 	lds	r24, 0x00D0
    12f6:	83 ff       	sbrs	r24, 3
    12f8:	05 c0       	rjmp	.+10     	; 0x1304 <__vector_9+0x6e>
		{
			// Direction control changed. Skip current period to allow TRIACs fully close
			rollState &= ~SKIP_CURRENT_MOTOR_CTRL;
    12fa:	87 7f       	andi	r24, 0xF7	; 247
    12fc:	80 93 d0 00 	sts	0x00D0, r24
			PORTD = temp; 	
    1300:	92 bb       	out	0x12, r25	; 18
    1302:	71 c0       	rjmp	.+226    	; 0x13e6 <__vector_9+0x150>
		}
		else
		{
			// Apply direction control 
			if (rollState & ROLL_FWD)
    1304:	80 ff       	sbrs	r24, 0
    1306:	02 c0       	rjmp	.+4      	; 0x130c <__vector_9+0x76>
				temp |= (1<<PD_M1);
    1308:	94 60       	ori	r25, 0x04	; 4
    130a:	02 c0       	rjmp	.+4      	; 0x1310 <__vector_9+0x7a>
			else if (rollState & ROLL_REV)
    130c:	81 fd       	sbrc	r24, 1
				temp |= (1<<PD_M2);
    130e:	98 60       	ori	r25, 0x08	; 8
			PORTD = temp; 
    1310:	92 bb       	out	0x12, r25	; 18
// Function to process rolling - sets rotation direction for next period
// Call once per each AC line period
static inline void controllRolling()
{
	// Process cycle rolling
	switch(rollState & (ROLL_FWD | ROLL_REV | ROLL_CYCLE))
    1312:	40 91 d0 00 	lds	r20, 0x00D0
    1316:	84 2f       	mov	r24, r20
    1318:	87 70       	andi	r24, 0x07	; 7
    131a:	85 30       	cpi	r24, 0x05	; 5
    131c:	19 f0       	breq	.+6      	; 0x1324 <__vector_9+0x8e>
    131e:	86 30       	cpi	r24, 0x06	; 6
    1320:	d1 f5       	brne	.+116    	; 0x1396 <__vector_9+0x100>
    1322:	1d c0       	rjmp	.+58     	; 0x135e <__vector_9+0xc8>
	{
		case (ROLL_FWD | ROLL_CYCLE):
			if (rollPoint >=  topPoint)
    1324:	20 91 69 00 	lds	r18, 0x0069
    1328:	30 91 6a 00 	lds	r19, 0x006A
    132c:	80 91 6d 00 	lds	r24, 0x006D
    1330:	90 91 6e 00 	lds	r25, 0x006E
    1334:	28 17       	cp	r18, r24
    1336:	39 07       	cpc	r19, r25
    1338:	70 f1       	brcs	.+92     	; 0x1396 <__vector_9+0x100>
			{
				if (activeRollCycle >= rollCycleSet)	
    133a:	80 91 fd 00 	lds	r24, 0x00FD
    133e:	90 91 66 00 	lds	r25, 0x0066
    1342:	89 17       	cp	r24, r25
    1344:	28 f0       	brcs	.+10     	; 0x1350 <__vector_9+0xba>
				{
					// DONE!
					rollState &= ~ROLL_CYCLE;
    1346:	4b 7f       	andi	r20, 0xFB	; 251
					rollState |= CYCLE_ROLL_DONE;
    1348:	40 61       	ori	r20, 0x10	; 16
    134a:	40 93 d0 00 	sts	0x00D0, r20
    134e:	23 c0       	rjmp	.+70     	; 0x1396 <__vector_9+0x100>
				}
				else
				{
					activeRollCycle++;
    1350:	8f 5f       	subi	r24, 0xFF	; 255
    1352:	80 93 fd 00 	sts	0x00FD, r24
					// Change dir	
					newDirReq = ROLL_REV;
    1356:	82 e0       	ldi	r24, 0x02	; 2
    1358:	80 93 d3 00 	sts	0x00D3, r24
    135c:	1c c0       	rjmp	.+56     	; 0x1396 <__vector_9+0x100>
				}
			}
			break;
		
		case (ROLL_REV | ROLL_CYCLE):	
			if (rollPoint <=  bottomPoint)
    135e:	20 91 69 00 	lds	r18, 0x0069
    1362:	30 91 6a 00 	lds	r19, 0x006A
    1366:	80 91 6b 00 	lds	r24, 0x006B
    136a:	90 91 6c 00 	lds	r25, 0x006C
    136e:	82 17       	cp	r24, r18
    1370:	93 07       	cpc	r25, r19
    1372:	88 f0       	brcs	.+34     	; 0x1396 <__vector_9+0x100>
			{
				if (activeRollCycle >= rollCycleSet)	
    1374:	80 91 fd 00 	lds	r24, 0x00FD
    1378:	90 91 66 00 	lds	r25, 0x0066
    137c:	89 17       	cp	r24, r25
    137e:	28 f0       	brcs	.+10     	; 0x138a <__vector_9+0xf4>
				{
					// DONE!
					rollState &= ~ROLL_CYCLE;
    1380:	4b 7f       	andi	r20, 0xFB	; 251
					rollState |= CYCLE_ROLL_DONE;
    1382:	40 61       	ori	r20, 0x10	; 16
    1384:	40 93 d0 00 	sts	0x00D0, r20
    1388:	06 c0       	rjmp	.+12     	; 0x1396 <__vector_9+0x100>
				}
				else
				{
					activeRollCycle++;
    138a:	8f 5f       	subi	r24, 0xFF	; 255
    138c:	80 93 fd 00 	sts	0x00FD, r24
					// Change dir	
					newDirReq = ROLL_FWD;
    1390:	81 e0       	ldi	r24, 0x01	; 1
    1392:	80 93 d3 00 	sts	0x00D3, r24
		default:
			break;
	}
	
	// Process direction change
	if ((rollState ^ newDirReq) & (ROLL_FWD | ROLL_REV))
    1396:	80 91 d0 00 	lds	r24, 0x00D0
    139a:	90 91 d3 00 	lds	r25, 0x00D3
    139e:	29 2f       	mov	r18, r25
    13a0:	28 27       	eor	r18, r24
    13a2:	23 70       	andi	r18, 0x03	; 3
    13a4:	19 f0       	breq	.+6      	; 0x13ac <__vector_9+0x116>
	{
		rollState |= (SKIP_CURRENT_MOTOR_CTRL | ROLL_DIR_CHANGED);
    13a6:	88 62       	ori	r24, 0x28	; 40
    13a8:	80 93 d0 00 	sts	0x00D0, r24
	}
	rollState &= ~(ROLL_FWD | ROLL_REV);
    13ac:	80 91 d0 00 	lds	r24, 0x00D0
    13b0:	8c 7f       	andi	r24, 0xFC	; 252
	rollState |= newDirReq;
    13b2:	89 2b       	or	r24, r25
    13b4:	80 93 d0 00 	sts	0x00D0, r24

static inline void updateRollPoint(void)
{
	uint16_t diff;
	
	if (rollState & ROLL_FWD)
    13b8:	80 ff       	sbrs	r24, 0
    13ba:	0a c0       	rjmp	.+20     	; 0x13d0 <__vector_9+0x13a>
		rollPoint++;
    13bc:	80 91 69 00 	lds	r24, 0x0069
    13c0:	90 91 6a 00 	lds	r25, 0x006A
    13c4:	01 96       	adiw	r24, 0x01	; 1
    13c6:	90 93 6a 00 	sts	0x006A, r25
    13ca:	80 93 69 00 	sts	0x0069, r24
    13ce:	0b c0       	rjmp	.+22     	; 0x13e6 <__vector_9+0x150>
	else if (rollState & ROLL_REV)
    13d0:	81 ff       	sbrs	r24, 1
    13d2:	09 c0       	rjmp	.+18     	; 0x13e6 <__vector_9+0x150>
		rollPoint--;	
    13d4:	80 91 69 00 	lds	r24, 0x0069
    13d8:	90 91 6a 00 	lds	r25, 0x006A
    13dc:	01 97       	sbiw	r24, 0x01	; 1
    13de:	90 93 6a 00 	sts	0x006A, r25
    13e2:	80 93 69 00 	sts	0x0069, r24
			controllRolling();
		}
			

		// Process heater control counter
		if (heater_cnt == HEATER_REGULATION_PERIODS - 1)
    13e6:	80 91 d4 00 	lds	r24, 0x00D4
    13ea:	89 30       	cpi	r24, 0x09	; 9
    13ec:	61 f4       	brne	.+24     	; 0x1406 <__vector_9+0x170>
		{
			heater_cnt = 0;
    13ee:	10 92 d4 00 	sts	0x00D4, r1
			ctrl_heater_sync = ctrl_heater;
    13f2:	80 91 d2 00 	lds	r24, 0x00D2
    13f6:	80 93 d5 00 	sts	0x00D5, r24
			heaterState |= READY_TO_UPDATE_HEATER;
    13fa:	80 91 d1 00 	lds	r24, 0x00D1
    13fe:	80 68       	ori	r24, 0x80	; 128
    1400:	80 93 d1 00 	sts	0x00D1, r24
    1404:	03 c0       	rjmp	.+6      	; 0x140c <__vector_9+0x176>
		}
		else
		{
			heater_cnt++;
    1406:	8f 5f       	subi	r24, 0xFF	; 255
    1408:	80 93 d4 00 	sts	0x00D4, r24
			
			
	}
	

	if ((p_state & STATE_MASK)  != 0x0F)
    140c:	80 91 6f 00 	lds	r24, 0x006F
    1410:	98 2f       	mov	r25, r24
    1412:	9f 70       	andi	r25, 0x0F	; 15
    1414:	9f 30       	cpi	r25, 0x0F	; 15
    1416:	19 f0       	breq	.+6      	; 0x141e <__vector_9+0x188>
		p_state++;
    1418:	8f 5f       	subi	r24, 0xFF	; 255
    141a:	80 93 6f 00 	sts	0x006F, r24

}	
    141e:	9f 91       	pop	r25
    1420:	8f 91       	pop	r24
    1422:	4f 91       	pop	r20
    1424:	3f 91       	pop	r19
    1426:	2f 91       	pop	r18
    1428:	0f 90       	pop	r0
    142a:	0f be       	out	0x3f, r0	; 63
    142c:	0f 90       	pop	r0
    142e:	1f 90       	pop	r1
    1430:	18 95       	reti

00001432 <processSoftTimer8b>:
 
 
 
 
 void processSoftTimer8b(SoftTimer8b_t *tmr)
 {
    1432:	fc 01       	movw	r30, r24
	 uint8_t newTimerVal;

	 if (!tmr->Enabled)
    1434:	80 81       	ld	r24, Z
    1436:	80 ff       	sbrs	r24, 0
    1438:	29 c0       	rjmp	.+82     	; 0x148c <processSoftTimer8b+0x5a>
		return;
	 
	 tmr->FA_EQ = 0;
	 tmr->FA_GE = 0;
	 tmr->FTop = 0;
    143a:	87 7e       	andi	r24, 0xE7	; 231
    143c:	8f 7d       	andi	r24, 0xDF	; 223
    143e:	80 83       	st	Z, r24
	 
	 if (tmr->Timer >= tmr->Top)
    1440:	81 81       	ldd	r24, Z+1	; 0x01
    1442:	92 81       	ldd	r25, Z+2	; 0x02
    1444:	89 17       	cp	r24, r25
    1446:	58 f0       	brcs	.+22     	; 0x145e <processSoftTimer8b+0x2c>
	 {
		 if (tmr->RunOnce)
    1448:	90 81       	ld	r25, Z
    144a:	91 ff       	sbrs	r25, 1
    144c:	02 c0       	rjmp	.+4      	; 0x1452 <processSoftTimer8b+0x20>
		 {
			 tmr->Enabled = 0;
    144e:	9e 7f       	andi	r25, 0xFE	; 254
    1450:	90 83       	st	Z, r25
		 }
		 tmr->FTop = 1;
    1452:	90 81       	ld	r25, Z
		 tmr->FOvfl = 1;
    1454:	90 62       	ori	r25, 0x20	; 32
    1456:	90 64       	ori	r25, 0x40	; 64
    1458:	90 83       	st	Z, r25
		 newTimerVal = 0;
    145a:	20 e0       	ldi	r18, 0x00	; 0
    145c:	02 c0       	rjmp	.+4      	; 0x1462 <processSoftTimer8b+0x30>
	 }
	 else
	 {
		 newTimerVal = tmr->Timer + 1;
    145e:	28 2f       	mov	r18, r24
    1460:	2f 5f       	subi	r18, 0xFF	; 255
	 }
	 
	 if (tmr->Timer == tmr->CompA)
    1462:	93 81       	ldd	r25, Z+3	; 0x03
    1464:	89 13       	cpse	r24, r25
    1466:	0c c0       	rjmp	.+24     	; 0x1480 <processSoftTimer8b+0x4e>
	 {
		 tmr->FA_EQ = 1;
    1468:	80 81       	ld	r24, Z
		 tmr->FA_GE = 1;
    146a:	88 60       	ori	r24, 0x08	; 8
    146c:	80 61       	ori	r24, 0x10	; 16
		 tmr->FA_TGL = !tmr->FA_TGL;
    146e:	82 fb       	bst	r24, 2
    1470:	33 27       	eor	r19, r19
    1472:	30 f9       	bld	r19, 0
    1474:	91 e0       	ldi	r25, 0x01	; 1
    1476:	93 27       	eor	r25, r19
    1478:	90 fb       	bst	r25, 0
    147a:	82 f9       	bld	r24, 2
    147c:	80 83       	st	Z, r24
    147e:	05 c0       	rjmp	.+10     	; 0x148a <processSoftTimer8b+0x58>
	 }
	 else if (tmr->Timer >= tmr->CompA)
    1480:	89 17       	cp	r24, r25
    1482:	18 f0       	brcs	.+6      	; 0x148a <processSoftTimer8b+0x58>
	 {
		 tmr->FA_GE = 1;
    1484:	80 81       	ld	r24, Z
    1486:	80 61       	ori	r24, 0x10	; 16
    1488:	80 83       	st	Z, r24
	 }
	 
	 tmr->Timer = newTimerVal; 
    148a:	21 83       	std	Z+1, r18	; 0x01
    148c:	08 95       	ret

0000148e <SetBeeperFreq>:
}

// Setup beeper frequency (Hz)
void SetBeeperFreq(uint16_t freq_hz)
{
	uint16_t period_us = 1000000 / freq_hz;
    148e:	9c 01       	movw	r18, r24
    1490:	40 e0       	ldi	r20, 0x00	; 0
    1492:	50 e0       	ldi	r21, 0x00	; 0
    1494:	60 e4       	ldi	r22, 0x40	; 64
    1496:	72 e4       	ldi	r23, 0x42	; 66
    1498:	8f e0       	ldi	r24, 0x0F	; 15
    149a:	90 e0       	ldi	r25, 0x00	; 0
    149c:	f6 d1       	rcall	.+1004   	; 0x188a <__divmodsi4>
	if (period_us & 0xFFF8)
    149e:	da 01       	movw	r26, r20
    14a0:	c9 01       	movw	r24, r18
    14a2:	88 7f       	andi	r24, 0xF8	; 248
    14a4:	aa 27       	eor	r26, r26
    14a6:	bb 27       	eor	r27, r27
    14a8:	89 2b       	or	r24, r25
    14aa:	59 f0       	breq	.+22     	; 0x14c2 <SetBeeperFreq+0x34>
		OCR1A = (period_us>>3) - 1;
    14ac:	36 95       	lsr	r19
    14ae:	27 95       	ror	r18
    14b0:	36 95       	lsr	r19
    14b2:	27 95       	ror	r18
    14b4:	36 95       	lsr	r19
    14b6:	27 95       	ror	r18
    14b8:	21 50       	subi	r18, 0x01	; 1
    14ba:	31 09       	sbc	r19, r1
    14bc:	3b bd       	out	0x2b, r19	; 43
    14be:	2a bd       	out	0x2a, r18	; 42
    14c0:	04 c0       	rjmp	.+8      	; 0x14ca <SetBeeperFreq+0x3c>
	else
		OCR1A = 0x1;
    14c2:	81 e0       	ldi	r24, 0x01	; 1
    14c4:	90 e0       	ldi	r25, 0x00	; 0
    14c6:	9b bd       	out	0x2b, r25	; 43
    14c8:	8a bd       	out	0x2a, r24	; 42
	TCNT1 = 0;
    14ca:	1d bc       	out	0x2d, r1	; 45
    14cc:	1c bc       	out	0x2c, r1	; 44
    14ce:	08 95       	ret

000014d0 <StartBeep>:
}

// Beep for some time in ms
void StartBeep(uint16_t time_ms)
{
	if (sound_enable)
    14d0:	20 91 65 00 	lds	r18, 0x0065
    14d4:	22 23       	and	r18, r18
    14d6:	39 f0       	breq	.+14     	; 0x14e6 <StartBeep+0x16>
	{
		beep_cnt = time_ms;
    14d8:	90 93 d7 00 	sts	0x00D7, r25
    14dc:	80 93 d6 00 	sts	0x00D6, r24
// Enable / disable beeper output
inline void SetBeepOutput(uint8_t val)
{
	if (val)
		// Toggle OCR1A on compare match
		TCCR1A |= (1<<COM1A0);
    14e0:	8f b5       	in	r24, 0x2f	; 47
    14e2:	80 64       	ori	r24, 0x40	; 64
    14e4:	8f bd       	out	0x2f, r24	; 47
    14e6:	08 95       	ret

000014e8 <__vector_3>:
}



ISR(TIMER2_COMP_vect)
{	
    14e8:	1f 92       	push	r1
    14ea:	0f 92       	push	r0
    14ec:	0f b6       	in	r0, 0x3f	; 63
    14ee:	0f 92       	push	r0
    14f0:	11 24       	eor	r1, r1
    14f2:	2f 93       	push	r18
    14f4:	3f 93       	push	r19
    14f6:	4f 93       	push	r20
    14f8:	5f 93       	push	r21
    14fa:	6f 93       	push	r22
    14fc:	7f 93       	push	r23
    14fe:	8f 93       	push	r24
    1500:	9f 93       	push	r25
    1502:	af 93       	push	r26
    1504:	bf 93       	push	r27
    1506:	ef 93       	push	r30
    1508:	ff 93       	push	r31
	// Manage beeper
	if (beep_cnt)
    150a:	80 91 d6 00 	lds	r24, 0x00D6
    150e:	90 91 d7 00 	lds	r25, 0x00D7
    1512:	00 97       	sbiw	r24, 0x00	; 0
    1514:	31 f0       	breq	.+12     	; 0x1522 <__vector_3+0x3a>
		beep_cnt--;
    1516:	01 97       	sbiw	r24, 0x01	; 1
    1518:	90 93 d7 00 	sts	0x00D7, r25
    151c:	80 93 d6 00 	sts	0x00D6, r24
    1520:	03 c0       	rjmp	.+6      	; 0x1528 <__vector_3+0x40>
	if (val)
		// Toggle OCR1A on compare match
		TCCR1A |= (1<<COM1A0);
	else
		// Disable OCR1A output
		TCCR1A &= ~(1<<COM1A0 | 1<<COM1A1);
    1522:	8f b5       	in	r24, 0x2f	; 47
    1524:	8f 73       	andi	r24, 0x3F	; 63
    1526:	8f bd       	out	0x2f, r24	; 47
		beep_cnt--;
	else
		SetBeepOutput(0);	// done
	
	// Manage LED indicator
	processLedIndicator();
    1528:	58 d8       	rcall	.-3920   	; 0x5da <processLedIndicator>
	
	// Process menu update timer
	processSoftTimer8b(&menuUpdateTimer);	
    152a:	80 e7       	ldi	r24, 0x70	; 112
    152c:	90 e0       	ldi	r25, 0x00	; 0
    152e:	81 df       	rcall	.-254    	; 0x1432 <processSoftTimer8b>
	
	
	// Start ADC conversion
	ADCSRA |= (1<<ADSC);
    1530:	36 9a       	sbi	0x06, 6	; 6
	
		
}
    1532:	ff 91       	pop	r31
    1534:	ef 91       	pop	r30
    1536:	bf 91       	pop	r27
    1538:	af 91       	pop	r26
    153a:	9f 91       	pop	r25
    153c:	8f 91       	pop	r24
    153e:	7f 91       	pop	r23
    1540:	6f 91       	pop	r22
    1542:	5f 91       	pop	r21
    1544:	4f 91       	pop	r20
    1546:	3f 91       	pop	r19
    1548:	2f 91       	pop	r18
    154a:	0f 90       	pop	r0
    154c:	0f be       	out	0x3f, r0	; 63
    154e:	0f 90       	pop	r0
    1550:	1f 90       	pop	r1
    1552:	18 95       	reti

00001554 <USART_send>:



void USART_send( uint8_t data )
{
	UCSRA |= (1<<TXC);                 // Clear flag
    1554:	5e 9a       	sbi	0x0b, 6	; 11
	UDR = data;
    1556:	8c b9       	out	0x0c, r24	; 12
	while ( !(UCSRA & (1<<TXC)) );  // Wait
    1558:	5e 9b       	sbis	0x0b, 6	; 11
    155a:	fe cf       	rjmp	.-4      	; 0x1558 <USART_send+0x4>
}
    155c:	08 95       	ret

0000155e <USART_sendstr>:


void USART_sendstr(char* str)
{
    155e:	1f 93       	push	r17
    1560:	cf 93       	push	r28
    1562:	df 93       	push	r29
    1564:	ec 01       	movw	r28, r24
	uint8_t i = 0;
	while (str[i])
    1566:	88 81       	ld	r24, Y
    1568:	88 23       	and	r24, r24
    156a:	49 f0       	breq	.+18     	; 0x157e <USART_sendstr+0x20>
}


void USART_sendstr(char* str)
{
	uint8_t i = 0;
    156c:	10 e0       	ldi	r17, 0x00	; 0
	while (str[i])
	{
		USART_send(str[i++]);
    156e:	1f 5f       	subi	r17, 0xFF	; 255
    1570:	f1 df       	rcall	.-30     	; 0x1554 <USART_send>


void USART_sendstr(char* str)
{
	uint8_t i = 0;
	while (str[i])
    1572:	fe 01       	movw	r30, r28
    1574:	e1 0f       	add	r30, r17
    1576:	f1 1d       	adc	r31, r1
    1578:	80 81       	ld	r24, Z
    157a:	81 11       	cpse	r24, r1
    157c:	f8 cf       	rjmp	.-16     	; 0x156e <USART_sendstr+0x10>
	{
		USART_send(str[i++]);
	}
}
    157e:	df 91       	pop	r29
    1580:	cf 91       	pop	r28
    1582:	1f 91       	pop	r17
    1584:	08 95       	ret

00001586 <__subsf3>:
    1586:	50 58       	subi	r21, 0x80	; 128

00001588 <__addsf3>:
    1588:	bb 27       	eor	r27, r27
    158a:	aa 27       	eor	r26, r26
    158c:	0e d0       	rcall	.+28     	; 0x15aa <__addsf3x>
    158e:	e0 c0       	rjmp	.+448    	; 0x1750 <__fp_round>
    1590:	d1 d0       	rcall	.+418    	; 0x1734 <__fp_pscA>
    1592:	30 f0       	brcs	.+12     	; 0x15a0 <__addsf3+0x18>
    1594:	d6 d0       	rcall	.+428    	; 0x1742 <__fp_pscB>
    1596:	20 f0       	brcs	.+8      	; 0x15a0 <__addsf3+0x18>
    1598:	31 f4       	brne	.+12     	; 0x15a6 <__addsf3+0x1e>
    159a:	9f 3f       	cpi	r25, 0xFF	; 255
    159c:	11 f4       	brne	.+4      	; 0x15a2 <__addsf3+0x1a>
    159e:	1e f4       	brtc	.+6      	; 0x15a6 <__addsf3+0x1e>
    15a0:	c6 c0       	rjmp	.+396    	; 0x172e <__fp_nan>
    15a2:	0e f4       	brtc	.+2      	; 0x15a6 <__addsf3+0x1e>
    15a4:	e0 95       	com	r30
    15a6:	e7 fb       	bst	r30, 7
    15a8:	bc c0       	rjmp	.+376    	; 0x1722 <__fp_inf>

000015aa <__addsf3x>:
    15aa:	e9 2f       	mov	r30, r25
    15ac:	e2 d0       	rcall	.+452    	; 0x1772 <__fp_split3>
    15ae:	80 f3       	brcs	.-32     	; 0x1590 <__addsf3+0x8>
    15b0:	ba 17       	cp	r27, r26
    15b2:	62 07       	cpc	r22, r18
    15b4:	73 07       	cpc	r23, r19
    15b6:	84 07       	cpc	r24, r20
    15b8:	95 07       	cpc	r25, r21
    15ba:	18 f0       	brcs	.+6      	; 0x15c2 <__addsf3x+0x18>
    15bc:	71 f4       	brne	.+28     	; 0x15da <__addsf3x+0x30>
    15be:	9e f5       	brtc	.+102    	; 0x1626 <__addsf3x+0x7c>
    15c0:	fa c0       	rjmp	.+500    	; 0x17b6 <__fp_zero>
    15c2:	0e f4       	brtc	.+2      	; 0x15c6 <__addsf3x+0x1c>
    15c4:	e0 95       	com	r30
    15c6:	0b 2e       	mov	r0, r27
    15c8:	ba 2f       	mov	r27, r26
    15ca:	a0 2d       	mov	r26, r0
    15cc:	0b 01       	movw	r0, r22
    15ce:	b9 01       	movw	r22, r18
    15d0:	90 01       	movw	r18, r0
    15d2:	0c 01       	movw	r0, r24
    15d4:	ca 01       	movw	r24, r20
    15d6:	a0 01       	movw	r20, r0
    15d8:	11 24       	eor	r1, r1
    15da:	ff 27       	eor	r31, r31
    15dc:	59 1b       	sub	r21, r25
    15de:	99 f0       	breq	.+38     	; 0x1606 <__addsf3x+0x5c>
    15e0:	59 3f       	cpi	r21, 0xF9	; 249
    15e2:	50 f4       	brcc	.+20     	; 0x15f8 <__addsf3x+0x4e>
    15e4:	50 3e       	cpi	r21, 0xE0	; 224
    15e6:	68 f1       	brcs	.+90     	; 0x1642 <__addsf3x+0x98>
    15e8:	1a 16       	cp	r1, r26
    15ea:	f0 40       	sbci	r31, 0x00	; 0
    15ec:	a2 2f       	mov	r26, r18
    15ee:	23 2f       	mov	r18, r19
    15f0:	34 2f       	mov	r19, r20
    15f2:	44 27       	eor	r20, r20
    15f4:	58 5f       	subi	r21, 0xF8	; 248
    15f6:	f3 cf       	rjmp	.-26     	; 0x15de <__addsf3x+0x34>
    15f8:	46 95       	lsr	r20
    15fa:	37 95       	ror	r19
    15fc:	27 95       	ror	r18
    15fe:	a7 95       	ror	r26
    1600:	f0 40       	sbci	r31, 0x00	; 0
    1602:	53 95       	inc	r21
    1604:	c9 f7       	brne	.-14     	; 0x15f8 <__addsf3x+0x4e>
    1606:	7e f4       	brtc	.+30     	; 0x1626 <__addsf3x+0x7c>
    1608:	1f 16       	cp	r1, r31
    160a:	ba 0b       	sbc	r27, r26
    160c:	62 0b       	sbc	r22, r18
    160e:	73 0b       	sbc	r23, r19
    1610:	84 0b       	sbc	r24, r20
    1612:	ba f0       	brmi	.+46     	; 0x1642 <__addsf3x+0x98>
    1614:	91 50       	subi	r25, 0x01	; 1
    1616:	a1 f0       	breq	.+40     	; 0x1640 <__addsf3x+0x96>
    1618:	ff 0f       	add	r31, r31
    161a:	bb 1f       	adc	r27, r27
    161c:	66 1f       	adc	r22, r22
    161e:	77 1f       	adc	r23, r23
    1620:	88 1f       	adc	r24, r24
    1622:	c2 f7       	brpl	.-16     	; 0x1614 <__addsf3x+0x6a>
    1624:	0e c0       	rjmp	.+28     	; 0x1642 <__addsf3x+0x98>
    1626:	ba 0f       	add	r27, r26
    1628:	62 1f       	adc	r22, r18
    162a:	73 1f       	adc	r23, r19
    162c:	84 1f       	adc	r24, r20
    162e:	48 f4       	brcc	.+18     	; 0x1642 <__addsf3x+0x98>
    1630:	87 95       	ror	r24
    1632:	77 95       	ror	r23
    1634:	67 95       	ror	r22
    1636:	b7 95       	ror	r27
    1638:	f7 95       	ror	r31
    163a:	9e 3f       	cpi	r25, 0xFE	; 254
    163c:	08 f0       	brcs	.+2      	; 0x1640 <__addsf3x+0x96>
    163e:	b3 cf       	rjmp	.-154    	; 0x15a6 <__addsf3+0x1e>
    1640:	93 95       	inc	r25
    1642:	88 0f       	add	r24, r24
    1644:	08 f0       	brcs	.+2      	; 0x1648 <__addsf3x+0x9e>
    1646:	99 27       	eor	r25, r25
    1648:	ee 0f       	add	r30, r30
    164a:	97 95       	ror	r25
    164c:	87 95       	ror	r24
    164e:	08 95       	ret

00001650 <__fixunssfsi>:
    1650:	98 d0       	rcall	.+304    	; 0x1782 <__fp_splitA>
    1652:	88 f0       	brcs	.+34     	; 0x1676 <__fixunssfsi+0x26>
    1654:	9f 57       	subi	r25, 0x7F	; 127
    1656:	90 f0       	brcs	.+36     	; 0x167c <__fixunssfsi+0x2c>
    1658:	b9 2f       	mov	r27, r25
    165a:	99 27       	eor	r25, r25
    165c:	b7 51       	subi	r27, 0x17	; 23
    165e:	a0 f0       	brcs	.+40     	; 0x1688 <__fixunssfsi+0x38>
    1660:	d1 f0       	breq	.+52     	; 0x1696 <__fixunssfsi+0x46>
    1662:	66 0f       	add	r22, r22
    1664:	77 1f       	adc	r23, r23
    1666:	88 1f       	adc	r24, r24
    1668:	99 1f       	adc	r25, r25
    166a:	1a f0       	brmi	.+6      	; 0x1672 <__fixunssfsi+0x22>
    166c:	ba 95       	dec	r27
    166e:	c9 f7       	brne	.-14     	; 0x1662 <__fixunssfsi+0x12>
    1670:	12 c0       	rjmp	.+36     	; 0x1696 <__fixunssfsi+0x46>
    1672:	b1 30       	cpi	r27, 0x01	; 1
    1674:	81 f0       	breq	.+32     	; 0x1696 <__fixunssfsi+0x46>
    1676:	9f d0       	rcall	.+318    	; 0x17b6 <__fp_zero>
    1678:	b1 e0       	ldi	r27, 0x01	; 1
    167a:	08 95       	ret
    167c:	9c c0       	rjmp	.+312    	; 0x17b6 <__fp_zero>
    167e:	67 2f       	mov	r22, r23
    1680:	78 2f       	mov	r23, r24
    1682:	88 27       	eor	r24, r24
    1684:	b8 5f       	subi	r27, 0xF8	; 248
    1686:	39 f0       	breq	.+14     	; 0x1696 <__fixunssfsi+0x46>
    1688:	b9 3f       	cpi	r27, 0xF9	; 249
    168a:	cc f3       	brlt	.-14     	; 0x167e <__fixunssfsi+0x2e>
    168c:	86 95       	lsr	r24
    168e:	77 95       	ror	r23
    1690:	67 95       	ror	r22
    1692:	b3 95       	inc	r27
    1694:	d9 f7       	brne	.-10     	; 0x168c <__fixunssfsi+0x3c>
    1696:	3e f4       	brtc	.+14     	; 0x16a6 <__fixunssfsi+0x56>
    1698:	90 95       	com	r25
    169a:	80 95       	com	r24
    169c:	70 95       	com	r23
    169e:	61 95       	neg	r22
    16a0:	7f 4f       	sbci	r23, 0xFF	; 255
    16a2:	8f 4f       	sbci	r24, 0xFF	; 255
    16a4:	9f 4f       	sbci	r25, 0xFF	; 255
    16a6:	08 95       	ret

000016a8 <__floatunsisf>:
    16a8:	e8 94       	clt
    16aa:	09 c0       	rjmp	.+18     	; 0x16be <__floatsisf+0x12>

000016ac <__floatsisf>:
    16ac:	97 fb       	bst	r25, 7
    16ae:	3e f4       	brtc	.+14     	; 0x16be <__floatsisf+0x12>
    16b0:	90 95       	com	r25
    16b2:	80 95       	com	r24
    16b4:	70 95       	com	r23
    16b6:	61 95       	neg	r22
    16b8:	7f 4f       	sbci	r23, 0xFF	; 255
    16ba:	8f 4f       	sbci	r24, 0xFF	; 255
    16bc:	9f 4f       	sbci	r25, 0xFF	; 255
    16be:	99 23       	and	r25, r25
    16c0:	a9 f0       	breq	.+42     	; 0x16ec <__floatsisf+0x40>
    16c2:	f9 2f       	mov	r31, r25
    16c4:	96 e9       	ldi	r25, 0x96	; 150
    16c6:	bb 27       	eor	r27, r27
    16c8:	93 95       	inc	r25
    16ca:	f6 95       	lsr	r31
    16cc:	87 95       	ror	r24
    16ce:	77 95       	ror	r23
    16d0:	67 95       	ror	r22
    16d2:	b7 95       	ror	r27
    16d4:	f1 11       	cpse	r31, r1
    16d6:	f8 cf       	rjmp	.-16     	; 0x16c8 <__floatsisf+0x1c>
    16d8:	fa f4       	brpl	.+62     	; 0x1718 <__floatsisf+0x6c>
    16da:	bb 0f       	add	r27, r27
    16dc:	11 f4       	brne	.+4      	; 0x16e2 <__floatsisf+0x36>
    16de:	60 ff       	sbrs	r22, 0
    16e0:	1b c0       	rjmp	.+54     	; 0x1718 <__floatsisf+0x6c>
    16e2:	6f 5f       	subi	r22, 0xFF	; 255
    16e4:	7f 4f       	sbci	r23, 0xFF	; 255
    16e6:	8f 4f       	sbci	r24, 0xFF	; 255
    16e8:	9f 4f       	sbci	r25, 0xFF	; 255
    16ea:	16 c0       	rjmp	.+44     	; 0x1718 <__floatsisf+0x6c>
    16ec:	88 23       	and	r24, r24
    16ee:	11 f0       	breq	.+4      	; 0x16f4 <__floatsisf+0x48>
    16f0:	96 e9       	ldi	r25, 0x96	; 150
    16f2:	11 c0       	rjmp	.+34     	; 0x1716 <__floatsisf+0x6a>
    16f4:	77 23       	and	r23, r23
    16f6:	21 f0       	breq	.+8      	; 0x1700 <__floatsisf+0x54>
    16f8:	9e e8       	ldi	r25, 0x8E	; 142
    16fa:	87 2f       	mov	r24, r23
    16fc:	76 2f       	mov	r23, r22
    16fe:	05 c0       	rjmp	.+10     	; 0x170a <__floatsisf+0x5e>
    1700:	66 23       	and	r22, r22
    1702:	71 f0       	breq	.+28     	; 0x1720 <__floatsisf+0x74>
    1704:	96 e8       	ldi	r25, 0x86	; 134
    1706:	86 2f       	mov	r24, r22
    1708:	70 e0       	ldi	r23, 0x00	; 0
    170a:	60 e0       	ldi	r22, 0x00	; 0
    170c:	2a f0       	brmi	.+10     	; 0x1718 <__floatsisf+0x6c>
    170e:	9a 95       	dec	r25
    1710:	66 0f       	add	r22, r22
    1712:	77 1f       	adc	r23, r23
    1714:	88 1f       	adc	r24, r24
    1716:	da f7       	brpl	.-10     	; 0x170e <__floatsisf+0x62>
    1718:	88 0f       	add	r24, r24
    171a:	96 95       	lsr	r25
    171c:	87 95       	ror	r24
    171e:	97 f9       	bld	r25, 7
    1720:	08 95       	ret

00001722 <__fp_inf>:
    1722:	97 f9       	bld	r25, 7
    1724:	9f 67       	ori	r25, 0x7F	; 127
    1726:	80 e8       	ldi	r24, 0x80	; 128
    1728:	70 e0       	ldi	r23, 0x00	; 0
    172a:	60 e0       	ldi	r22, 0x00	; 0
    172c:	08 95       	ret

0000172e <__fp_nan>:
    172e:	9f ef       	ldi	r25, 0xFF	; 255
    1730:	80 ec       	ldi	r24, 0xC0	; 192
    1732:	08 95       	ret

00001734 <__fp_pscA>:
    1734:	00 24       	eor	r0, r0
    1736:	0a 94       	dec	r0
    1738:	16 16       	cp	r1, r22
    173a:	17 06       	cpc	r1, r23
    173c:	18 06       	cpc	r1, r24
    173e:	09 06       	cpc	r0, r25
    1740:	08 95       	ret

00001742 <__fp_pscB>:
    1742:	00 24       	eor	r0, r0
    1744:	0a 94       	dec	r0
    1746:	12 16       	cp	r1, r18
    1748:	13 06       	cpc	r1, r19
    174a:	14 06       	cpc	r1, r20
    174c:	05 06       	cpc	r0, r21
    174e:	08 95       	ret

00001750 <__fp_round>:
    1750:	09 2e       	mov	r0, r25
    1752:	03 94       	inc	r0
    1754:	00 0c       	add	r0, r0
    1756:	11 f4       	brne	.+4      	; 0x175c <__fp_round+0xc>
    1758:	88 23       	and	r24, r24
    175a:	52 f0       	brmi	.+20     	; 0x1770 <__fp_round+0x20>
    175c:	bb 0f       	add	r27, r27
    175e:	40 f4       	brcc	.+16     	; 0x1770 <__fp_round+0x20>
    1760:	bf 2b       	or	r27, r31
    1762:	11 f4       	brne	.+4      	; 0x1768 <__fp_round+0x18>
    1764:	60 ff       	sbrs	r22, 0
    1766:	04 c0       	rjmp	.+8      	; 0x1770 <__fp_round+0x20>
    1768:	6f 5f       	subi	r22, 0xFF	; 255
    176a:	7f 4f       	sbci	r23, 0xFF	; 255
    176c:	8f 4f       	sbci	r24, 0xFF	; 255
    176e:	9f 4f       	sbci	r25, 0xFF	; 255
    1770:	08 95       	ret

00001772 <__fp_split3>:
    1772:	57 fd       	sbrc	r21, 7
    1774:	90 58       	subi	r25, 0x80	; 128
    1776:	44 0f       	add	r20, r20
    1778:	55 1f       	adc	r21, r21
    177a:	59 f0       	breq	.+22     	; 0x1792 <__fp_splitA+0x10>
    177c:	5f 3f       	cpi	r21, 0xFF	; 255
    177e:	71 f0       	breq	.+28     	; 0x179c <__fp_splitA+0x1a>
    1780:	47 95       	ror	r20

00001782 <__fp_splitA>:
    1782:	88 0f       	add	r24, r24
    1784:	97 fb       	bst	r25, 7
    1786:	99 1f       	adc	r25, r25
    1788:	61 f0       	breq	.+24     	; 0x17a2 <__fp_splitA+0x20>
    178a:	9f 3f       	cpi	r25, 0xFF	; 255
    178c:	79 f0       	breq	.+30     	; 0x17ac <__fp_splitA+0x2a>
    178e:	87 95       	ror	r24
    1790:	08 95       	ret
    1792:	12 16       	cp	r1, r18
    1794:	13 06       	cpc	r1, r19
    1796:	14 06       	cpc	r1, r20
    1798:	55 1f       	adc	r21, r21
    179a:	f2 cf       	rjmp	.-28     	; 0x1780 <__fp_split3+0xe>
    179c:	46 95       	lsr	r20
    179e:	f1 df       	rcall	.-30     	; 0x1782 <__fp_splitA>
    17a0:	08 c0       	rjmp	.+16     	; 0x17b2 <__fp_splitA+0x30>
    17a2:	16 16       	cp	r1, r22
    17a4:	17 06       	cpc	r1, r23
    17a6:	18 06       	cpc	r1, r24
    17a8:	99 1f       	adc	r25, r25
    17aa:	f1 cf       	rjmp	.-30     	; 0x178e <__fp_splitA+0xc>
    17ac:	86 95       	lsr	r24
    17ae:	71 05       	cpc	r23, r1
    17b0:	61 05       	cpc	r22, r1
    17b2:	08 94       	sec
    17b4:	08 95       	ret

000017b6 <__fp_zero>:
    17b6:	e8 94       	clt

000017b8 <__fp_szero>:
    17b8:	bb 27       	eor	r27, r27
    17ba:	66 27       	eor	r22, r22
    17bc:	77 27       	eor	r23, r23
    17be:	cb 01       	movw	r24, r22
    17c0:	97 f9       	bld	r25, 7
    17c2:	08 95       	ret

000017c4 <__mulsf3>:
    17c4:	0b d0       	rcall	.+22     	; 0x17dc <__mulsf3x>
    17c6:	c4 cf       	rjmp	.-120    	; 0x1750 <__fp_round>
    17c8:	b5 df       	rcall	.-150    	; 0x1734 <__fp_pscA>
    17ca:	28 f0       	brcs	.+10     	; 0x17d6 <__mulsf3+0x12>
    17cc:	ba df       	rcall	.-140    	; 0x1742 <__fp_pscB>
    17ce:	18 f0       	brcs	.+6      	; 0x17d6 <__mulsf3+0x12>
    17d0:	95 23       	and	r25, r21
    17d2:	09 f0       	breq	.+2      	; 0x17d6 <__mulsf3+0x12>
    17d4:	a6 cf       	rjmp	.-180    	; 0x1722 <__fp_inf>
    17d6:	ab cf       	rjmp	.-170    	; 0x172e <__fp_nan>
    17d8:	11 24       	eor	r1, r1
    17da:	ee cf       	rjmp	.-36     	; 0x17b8 <__fp_szero>

000017dc <__mulsf3x>:
    17dc:	ca df       	rcall	.-108    	; 0x1772 <__fp_split3>
    17de:	a0 f3       	brcs	.-24     	; 0x17c8 <__mulsf3+0x4>

000017e0 <__mulsf3_pse>:
    17e0:	95 9f       	mul	r25, r21
    17e2:	d1 f3       	breq	.-12     	; 0x17d8 <__mulsf3+0x14>
    17e4:	95 0f       	add	r25, r21
    17e6:	50 e0       	ldi	r21, 0x00	; 0
    17e8:	55 1f       	adc	r21, r21
    17ea:	62 9f       	mul	r22, r18
    17ec:	f0 01       	movw	r30, r0
    17ee:	72 9f       	mul	r23, r18
    17f0:	bb 27       	eor	r27, r27
    17f2:	f0 0d       	add	r31, r0
    17f4:	b1 1d       	adc	r27, r1
    17f6:	63 9f       	mul	r22, r19
    17f8:	aa 27       	eor	r26, r26
    17fa:	f0 0d       	add	r31, r0
    17fc:	b1 1d       	adc	r27, r1
    17fe:	aa 1f       	adc	r26, r26
    1800:	64 9f       	mul	r22, r20
    1802:	66 27       	eor	r22, r22
    1804:	b0 0d       	add	r27, r0
    1806:	a1 1d       	adc	r26, r1
    1808:	66 1f       	adc	r22, r22
    180a:	82 9f       	mul	r24, r18
    180c:	22 27       	eor	r18, r18
    180e:	b0 0d       	add	r27, r0
    1810:	a1 1d       	adc	r26, r1
    1812:	62 1f       	adc	r22, r18
    1814:	73 9f       	mul	r23, r19
    1816:	b0 0d       	add	r27, r0
    1818:	a1 1d       	adc	r26, r1
    181a:	62 1f       	adc	r22, r18
    181c:	83 9f       	mul	r24, r19
    181e:	a0 0d       	add	r26, r0
    1820:	61 1d       	adc	r22, r1
    1822:	22 1f       	adc	r18, r18
    1824:	74 9f       	mul	r23, r20
    1826:	33 27       	eor	r19, r19
    1828:	a0 0d       	add	r26, r0
    182a:	61 1d       	adc	r22, r1
    182c:	23 1f       	adc	r18, r19
    182e:	84 9f       	mul	r24, r20
    1830:	60 0d       	add	r22, r0
    1832:	21 1d       	adc	r18, r1
    1834:	82 2f       	mov	r24, r18
    1836:	76 2f       	mov	r23, r22
    1838:	6a 2f       	mov	r22, r26
    183a:	11 24       	eor	r1, r1
    183c:	9f 57       	subi	r25, 0x7F	; 127
    183e:	50 40       	sbci	r21, 0x00	; 0
    1840:	8a f0       	brmi	.+34     	; 0x1864 <__mulsf3_pse+0x84>
    1842:	e1 f0       	breq	.+56     	; 0x187c <__mulsf3_pse+0x9c>
    1844:	88 23       	and	r24, r24
    1846:	4a f0       	brmi	.+18     	; 0x185a <__mulsf3_pse+0x7a>
    1848:	ee 0f       	add	r30, r30
    184a:	ff 1f       	adc	r31, r31
    184c:	bb 1f       	adc	r27, r27
    184e:	66 1f       	adc	r22, r22
    1850:	77 1f       	adc	r23, r23
    1852:	88 1f       	adc	r24, r24
    1854:	91 50       	subi	r25, 0x01	; 1
    1856:	50 40       	sbci	r21, 0x00	; 0
    1858:	a9 f7       	brne	.-22     	; 0x1844 <__mulsf3_pse+0x64>
    185a:	9e 3f       	cpi	r25, 0xFE	; 254
    185c:	51 05       	cpc	r21, r1
    185e:	70 f0       	brcs	.+28     	; 0x187c <__mulsf3_pse+0x9c>
    1860:	60 cf       	rjmp	.-320    	; 0x1722 <__fp_inf>
    1862:	aa cf       	rjmp	.-172    	; 0x17b8 <__fp_szero>
    1864:	5f 3f       	cpi	r21, 0xFF	; 255
    1866:	ec f3       	brlt	.-6      	; 0x1862 <__mulsf3_pse+0x82>
    1868:	98 3e       	cpi	r25, 0xE8	; 232
    186a:	dc f3       	brlt	.-10     	; 0x1862 <__mulsf3_pse+0x82>
    186c:	86 95       	lsr	r24
    186e:	77 95       	ror	r23
    1870:	67 95       	ror	r22
    1872:	b7 95       	ror	r27
    1874:	f7 95       	ror	r31
    1876:	e7 95       	ror	r30
    1878:	9f 5f       	subi	r25, 0xFF	; 255
    187a:	c1 f7       	brne	.-16     	; 0x186c <__mulsf3_pse+0x8c>
    187c:	fe 2b       	or	r31, r30
    187e:	88 0f       	add	r24, r24
    1880:	91 1d       	adc	r25, r1
    1882:	96 95       	lsr	r25
    1884:	87 95       	ror	r24
    1886:	97 f9       	bld	r25, 7
    1888:	08 95       	ret

0000188a <__divmodsi4>:
    188a:	05 2e       	mov	r0, r21
    188c:	97 fb       	bst	r25, 7
    188e:	16 f4       	brtc	.+4      	; 0x1894 <__divmodsi4+0xa>
    1890:	00 94       	com	r0
    1892:	06 d0       	rcall	.+12     	; 0x18a0 <__divmodsi4_neg1>
    1894:	57 fd       	sbrc	r21, 7
    1896:	0c d0       	rcall	.+24     	; 0x18b0 <__divmodsi4_neg2>
    1898:	1f d0       	rcall	.+62     	; 0x18d8 <__udivmodsi4>
    189a:	07 fc       	sbrc	r0, 7
    189c:	09 d0       	rcall	.+18     	; 0x18b0 <__divmodsi4_neg2>
    189e:	7e f4       	brtc	.+30     	; 0x18be <__divmodsi4_exit>

000018a0 <__divmodsi4_neg1>:
    18a0:	90 95       	com	r25
    18a2:	80 95       	com	r24
    18a4:	70 95       	com	r23
    18a6:	61 95       	neg	r22
    18a8:	7f 4f       	sbci	r23, 0xFF	; 255
    18aa:	8f 4f       	sbci	r24, 0xFF	; 255
    18ac:	9f 4f       	sbci	r25, 0xFF	; 255
    18ae:	08 95       	ret

000018b0 <__divmodsi4_neg2>:
    18b0:	50 95       	com	r21
    18b2:	40 95       	com	r20
    18b4:	30 95       	com	r19
    18b6:	21 95       	neg	r18
    18b8:	3f 4f       	sbci	r19, 0xFF	; 255
    18ba:	4f 4f       	sbci	r20, 0xFF	; 255
    18bc:	5f 4f       	sbci	r21, 0xFF	; 255

000018be <__divmodsi4_exit>:
    18be:	08 95       	ret

000018c0 <__umulhisi3>:
    18c0:	a2 9f       	mul	r26, r18
    18c2:	b0 01       	movw	r22, r0
    18c4:	b3 9f       	mul	r27, r19
    18c6:	c0 01       	movw	r24, r0
    18c8:	a3 9f       	mul	r26, r19
    18ca:	01 d0       	rcall	.+2      	; 0x18ce <__umulhisi3+0xe>
    18cc:	b2 9f       	mul	r27, r18
    18ce:	70 0d       	add	r23, r0
    18d0:	81 1d       	adc	r24, r1
    18d2:	11 24       	eor	r1, r1
    18d4:	91 1d       	adc	r25, r1
    18d6:	08 95       	ret

000018d8 <__udivmodsi4>:
    18d8:	a1 e2       	ldi	r26, 0x21	; 33
    18da:	1a 2e       	mov	r1, r26
    18dc:	aa 1b       	sub	r26, r26
    18de:	bb 1b       	sub	r27, r27
    18e0:	fd 01       	movw	r30, r26
    18e2:	0d c0       	rjmp	.+26     	; 0x18fe <__udivmodsi4_ep>

000018e4 <__udivmodsi4_loop>:
    18e4:	aa 1f       	adc	r26, r26
    18e6:	bb 1f       	adc	r27, r27
    18e8:	ee 1f       	adc	r30, r30
    18ea:	ff 1f       	adc	r31, r31
    18ec:	a2 17       	cp	r26, r18
    18ee:	b3 07       	cpc	r27, r19
    18f0:	e4 07       	cpc	r30, r20
    18f2:	f5 07       	cpc	r31, r21
    18f4:	20 f0       	brcs	.+8      	; 0x18fe <__udivmodsi4_ep>
    18f6:	a2 1b       	sub	r26, r18
    18f8:	b3 0b       	sbc	r27, r19
    18fa:	e4 0b       	sbc	r30, r20
    18fc:	f5 0b       	sbc	r31, r21

000018fe <__udivmodsi4_ep>:
    18fe:	66 1f       	adc	r22, r22
    1900:	77 1f       	adc	r23, r23
    1902:	88 1f       	adc	r24, r24
    1904:	99 1f       	adc	r25, r25
    1906:	1a 94       	dec	r1
    1908:	69 f7       	brne	.-38     	; 0x18e4 <__udivmodsi4_loop>
    190a:	60 95       	com	r22
    190c:	70 95       	com	r23
    190e:	80 95       	com	r24
    1910:	90 95       	com	r25
    1912:	9b 01       	movw	r18, r22
    1914:	ac 01       	movw	r20, r24
    1916:	bd 01       	movw	r22, r26
    1918:	cf 01       	movw	r24, r30
    191a:	08 95       	ret

0000191c <_exit>:
    191c:	f8 94       	cli

0000191e <__stop_program>:
    191e:	ff cf       	rjmp	.-2      	; 0x191e <__stop_program>
